(dp1
S'output'
p2
S"<type 'exceptions.ValueError'> invalid literal for int() with base 10: 'a'"
p3
sS'layer'
p4
S'C:\\Users\\Silve\\Desktop\\web2py\\applications\\SIGULAB\\controllers/sustancias.py'
p5
sS'code'
p6
S"# -*- coding: utf-8 -*-\nfrom gluon.tools import Crud\n\n###################################################\n@auth.requires_login()\ndef validar_bitacora(form):\n    espF = request.vars['esp']\n    sust = request.vars['sust']\n    total = float(str(db((db.t_inventario.f_sustancia == sust)&(db.t_inventario.f_espaciofisico == espF)).select(db.t_inventario.f_cantidadusointerno))[33:-2])\n\n    if form.vars.f_cantidad == 0:\n        form.errors.f_cantidad = T('Introduzca un ingreso o consumo')\n\n    if 'edit' in request.args:\n        if form.vars.f_proceso in ['Suministro del Almacen','Compra','Prestamo','Donacion']:\n            back =  float(str(db((db.t_bitacora.f_fechaingreso == form.vars.f_fechaingreso)&(db.t_bitacora.f_sustancia == sust)&(db.t_bitacora.f_espaciofisico == espF)).select(db.t_bitacora.f_ingreso))[21:])\n            form.vars.f_ingreso = form.vars.f_cantidad\n            form.vars.f_cantidad = form.vars.f_ingreso + total - back\n        else:\n            if form.vars.f_cantidad > total:\n                form.errors.f_cantidad = T('No puede consumir m\xc3\xa1s de la cantidad disponible')\n            else:\n                back =  float(str(db((db.t_bitacora.f_fechaingreso == form.vars.f_fechaingreso)&(db.t_bitacora.f_sustancia == sust)&(db.t_bitacora.f_espaciofisico == espF)).select(db.t_bitacora.f_consumo))[21:])\n                form.vars.f_consumo = form.vars.f_cantidad\n                form.vars.f_cantidad = total - form.vars.f_consumo + back\n\n    else:\n\n        if form.vars.f_proceso in ['Suministro del Almacen','Compra','Prestamo','Donacion']:\n            form.vars.f_ingreso = form.vars.f_cantidad\n            form.vars.f_cantidad = form.vars.f_ingreso + total\n        else:\n            if form.vars.f_cantidad > total:\n                form.errors.f_cantidad = T('No puede consumir m\xc3\xa1s de la cantidad disponible')\n            else:\n                form.vars.f_consumo = form.vars.f_cantidad\n                form.vars.f_cantidad = total - form.vars.f_consumo\n\n\n###################################################\n@auth.requires_login()\ndef update_bitacora(form):\n        espF = request.vars['esp']\n        sust = request.vars['sust']\n        new  = float(str(db((db.t_bitacora.f_sustancia == sust)&(db.t_bitacora.f_espaciofisico == espF)).select(db.t_bitacora.f_cantidad).last())[20:-2])\n        row = db((db.t_inventario.f_espaciofisico == espF)&(db.t_inventario.f_sustancia == sust)).select().first()\n        row.update_record(f_cantidadusointerno=new)\n        row.update_record(f_total = row.f_cantidadusointerno+row.f_cantidadonacion)\n\n\n###################################################\n@auth.requires_login()\ndef insert_bitacora(form):\n    espF = request.vars['esp']\n    sust = request.vars['sust']\n    new  = float(str(db((db.t_bitacora.f_sustancia == sust)&(db.t_bitacora.f_espaciofisico == espF)).select(db.t_bitacora.f_cantidad).last())[20:-2])\n    row = db((db.t_inventario.f_espaciofisico == espF)&(db.t_inventario.f_sustancia == sust)).select().first()\n    row.update_record(f_cantidadusointerno=new)\n    row.update_record(f_total = row.f_cantidadusointerno+row.f_cantidadonacion)\n\n\n###################################################\n@auth.requires_login()\ndef sustanciapeligrosa_manage():\n    if(auth.has_permission('gestor','t_sustancias') or \\\n    auth.has_permission('director','t_sustancias')):\n        table = SQLFORM.smartgrid(db.t_sustancias,onupdate=auth.archive,details=False,links_in_grid=False,csv=False,user_signature=True)\n    else:\n        table = SQLFORM.smartgrid(db.t_sustancias,editable=False,deletable=False,csv=False,links_in_grid=False,create=False)\n    return locals()\n\n\n###################################################\n@auth.requires_login()\ndef select_inventario():\n    espacios=False\n    labs=False\n    secciones=False\n\n    #si hay espacios fisicos\n    if (auth.has_membership('Gestor de Sustancias') or auth.has_membership('Director') or auth.has_membership('WebMaster')):\n        espacios = db(db.t_inventario.f_espaciofisico == db.t_espaciofisico.id).select(db.t_espaciofisico.ALL,groupby=db.t_espaciofisico.id)\n        secciones = db(db.t_inventario.f_seccion == db.t_seccion.id).select(db.t_seccion.ALL,distinct=db.t_seccion.id)\n        labs = db(db.t_inventario.f_laboratorio == db.t_laboratorio.f_nombre).select(db.t_laboratorio.ALL,distinct=db.t_laboratorio.id)\n    elif (auth.has_membership('Jefe de Laboratorio') ):\n        espacios = db((db.t_laboratorio.f_jefe == auth.user.id)&(db.t_laboratorio.f_nombre == db.t_inventario.f_laboratorio)&(db.t_espaciofisico.id == db.t_inventario.f_espaciofisico)).select(db.t_espaciofisico.ALL,distinct=db.t_espaciofisico.id)\n        secciones = db((db.t_laboratorio.f_jefe == auth.user.id)&(db.t_inventario.f_laboratorio == db.t_laboratorio.f_nombre)&(db.t_seccion.id == db.t_inventario.f_seccion)).select(db.t_seccion.ALL,distinct=db.t_seccion.id)\n        labs = db(db.t_laboratorio.f_jefe == auth.user.id).select(db.t_laboratorio.ALL)\n    elif (auth.has_membership('Jefe de Secci\xc3\xb3n') ):\n        espacios = db((db.t_espaciofisico.f_seccion == db.t_seccion.id)&(db.t_seccion.f_jefe == auth.user.id)).select(db.t_espaciofisico.f_espacio,db.t_espaciofisico.id)\n        secciones = db(db.t_seccion.f_jefe == auth.user.id ).select(db.t_seccion.ALL)\n    else:\n        espacios = db(db.t_espaciofisico.f_tecnico == auth.user.id).select(db.t_espaciofisico.f_espacio, db.t_espaciofisico.id)\n\n\n    return locals()\n\n\n###################################################\n@auth.requires_login()\ndef inventario_lab():\n\n    lab = str(db(db.t_laboratorio.id == request.vars['lab']).select(db.t_laboratorio.f_nombre))[24:-2]\n    query = db.v_laboratorio.f_laboratorio == lab\n    table = SQLFORM.smartgrid(db.v_laboratorio,constraints=dict(v_laboratorio=query),csv=False,editable=False,deletable=False,create=False)\n    return locals()\n\n\n###################################################\n@auth.requires_login()\ndef inventario_seccion():\n\n    if request.vars['secc'] == 't':\n        db.v_seccion.f_seccion.readable = True\n        db.v_seccion.f_sustancia.readable = False\n        lab = str(db(db.t_laboratorio.id == request.vars['lab']).select(db.t_laboratorio.f_nombre))[24:-2]\n        query = (db.v_seccion.f_laboratorio == lab)&(db.v_seccion.f_sustancia == request.vars['sust'])\n        table = SQLFORM.smartgrid(db.v_seccion,constraints=dict(v_seccion=query),csv=False,editable=False,deletable=False,create=False)\n        seccion = False\n        sustancia = str(db(db.t_sustancias.id == request.vars['sust']).select(db.t_sustancias.f_nombre))[23:]\n        return locals()\n\n    sustancia = False\n    secc = request.vars['secc']\n    seccion = str(db(db.t_seccion.id == secc).select(db.t_seccion.f_seccion))[21:-2]\n    lab = str(db(db.t_seccion.id == secc).select(db.t_seccion.f_laboratorio))[25:-2]\n    query = (db.v_seccion.f_laboratorio == lab)&(db.v_seccion.f_seccion == secc)\n    table = SQLFORM.smartgrid(db.v_seccion,constraints=dict(v_seccion=query),csv=False,editable=False,deletable=False,create=False)\n    return locals()\n\n\n###################################################\n@auth.requires_login()\ndef inventario_manage():\n    #cheqeuar que no agreguen lo mismo\n    sustancia = False\n    labs = False\n    seccion = False\n\n    espF = request.vars['esp']\n    query = db.t_inventario.f_espaciofisico == espF\n    db.t_inventario.f_espaciofisico.default = espF\n\n    if request.vars['esp']:\n        seccion = int(str(db((db.t_espaciofisico.f_seccion == request.vars['esp'])&(db.t_seccion.id == db.t_espaciofisico.f_seccion)).select(db.t_seccion.f_seccion))[21:-2])\n        labs = str( db((db.t_seccion.id == seccion) ).select(db.t_seccion.f_laboratorio) )[25:-2]\n\n    if (request.vars['secc']):\n        labs = str(db(db.t_seccion.id == request.vars['secc']).select(db.t_seccion.f_laboratorio))[25:]\n        seccion = str(db(db.t_seccion.id == request.vars['secc']).select(db.t_seccion.f_seccion))[21:]\n        db.t_inventario.f_espaciofisico.readable = True\n        if (request.vars['sust']):\n            sustancia = str(db(db.t_sustancias.id == request.vars['sust']).select(db.t_sustancias.f_nombre))[23:]\n            query = (db.t_inventario.f_seccion == request.vars['secc'])&(db.t_inventario.f_sustancia == request.vars['sust'])\n        else:\n            query = (db.t_inventario.f_seccion == request.vars['secc'])#&(db.t_inventario.f_sustancia == request.vars['sust'])\n        table = SQLFORM.smartgrid(db.t_inventario,constraints=dict(t_inventario=query),onupdate=auth.archive,editable=False,\n        orderby=[db.t_inventario.f_espaciofisico,db.t_inventario.f_sustancia],create=False,csv=False,deletable=False,links_in_grid=False)\n        return locals()\n\n    table = SQLFORM.smartgrid(db.t_inventario,constraints=dict(t_inventario=query),create=(not auth.has_membership('T\xc3\xa9cnico') and not auth.has_membership('Usuario Normal')),links_in_grid=False,csv=False,editable=False,deletable=False)\n    return locals()\n\n\n###################################################\n@auth.requires_login()\ndef view_bitacora():\n    sust = request.vars['sust']\n    espF = request.vars['esp']\n    name = str(db(db.t_sustancias.id == sust).select(db.t_sustancias.f_nombre))[22:]\n    espacio = str(db(db.t_espaciofisico.id == espF).select(db.t_espaciofisico.f_espacio))[27:]\n    total = str(db((db.t_inventario.f_sustancia == sust)&(db.t_inventario.f_espaciofisico == espF)).select(db.t_inventario.f_cantidadusointerno))[34:]\n    db.t_bitacora.f_sustancia.default = sust\n    db.t_bitacora.f_espaciofisico.default = espF\n    db.t_bitacora.f_espaciofisico.readable = False\n    query = (db.t_bitacora.f_sustancia == sust)&(db.t_bitacora.f_espaciofisico == espF)\n\n    if ('new' in request.args):\n        db.t_bitacora.f_consumo.readable = False\n        db.t_bitacora.f_consumo.writable = False\n        db.t_bitacora.f_ingreso.readable = False\n        db.t_bitacora.f_ingreso.writable = False\n        db.t_bitacora.f_cantidad.writable = True\n\n    if ('view' in request.args):\n        db.t_bitacora.f_descripcion.readable = True\n        db.t_bitacora.f_cantidad.readable = False\n\n    if 'edit' in request.args:\n        db.t_bitacora.f_consumo.readable = False\n        db.t_bitacora.f_consumo.writable = False\n        db.t_bitacora.f_ingreso.readable = False\n        db.t_bitacora.f_ingreso.writable = False\n        db.t_bitacora.f_cantidad.writable = True\n        row = db(db.t_bitacora.id == request.args[3]).select().first()\n        if row.f_ingreso == 0:\n            row.update_record(f_cantidad = row.f_consumo)\n        else:\n            row.update_record(f_cantidad = row.f_ingreso)\n\n    table = SQLFORM.smartgrid(db.t_bitacora,constraints=dict(t_bitacora=query),oncreate=insert_bitacora,\n    orderby=~db.t_bitacora.f_fechaingreso,csv=False,links_in_grid=False,deletable=False,\n    user_signature=True,onvalidation=validar_bitacora,paginate=10,onupdate=update_bitacora)\n\n    return locals()\n\nresponse._vars=response._caller(inventario_manage)\n"
p7
sS'snapshot'
p8
(dp9
S'exception'
p10
(dp11
S'__hash__'
p12
S"<method-wrapper '__hash__' of exceptions.ValueError object>"
p13
sS'__setattr__'
p14
S"<method-wrapper '__setattr__' of exceptions.ValueError object>"
p15
sS'__reduce_ex__'
p16
S'<built-in method __reduce_ex__ of exceptions.ValueError object>'
p17
sS'__getslice__'
p18
S"<method-wrapper '__getslice__' of exceptions.ValueError object>"
p19
sS'__getitem__'
p20
S"<method-wrapper '__getitem__' of exceptions.ValueError object>"
p21
sS'__setstate__'
p22
S'<built-in method __setstate__ of exceptions.ValueError object>'
p23
sS'__reduce__'
p24
S'<built-in method __reduce__ of exceptions.ValueError object>'
p25
sS'__str__'
p26
S"<method-wrapper '__str__' of exceptions.ValueError object>"
p27
sS'__format__'
p28
S'<built-in method __format__ of exceptions.ValueError object>'
p29
sS'__getattribute__'
p30
S"<method-wrapper '__getattribute__' of exceptions.ValueError object>"
p31
sS'__class__'
p32
S"<type 'exceptions.ValueError'>"
p33
sS'__unicode__'
p34
S'<built-in method __unicode__ of exceptions.ValueError object>'
p35
sS'__delattr__'
p36
S"<method-wrapper '__delattr__' of exceptions.ValueError object>"
p37
sS'__subclasshook__'
p38
S'<built-in method __subclasshook__ of type object>'
p39
sS'__repr__'
p40
S"<method-wrapper '__repr__' of exceptions.ValueError object>"
p41
sS'args'
p42
S'("invalid literal for int() with base 10: \'a\'",)'
p43
sS'__dict__'
p44
S'{}'
p45
sS'__sizeof__'
p46
S'<built-in method __sizeof__ of exceptions.ValueError object>'
p47
sS'__doc__'
p48
S"'Inappropriate argument value (of correct type).'"
p49
sS'__init__'
p50
S"<method-wrapper '__init__' of exceptions.ValueError object>"
p51
sS'__new__'
p52
S'<built-in method __new__ of type object>'
p53
ssS'evalue'
p54
S"invalid literal for int() with base 10: 'a'"
p55
sS'request'
p56
cgluon.html
XML_unpickle
p57
(S's\xbb\\\x00\x00<div><table><tr><td style="font-weight:bold;vertical-align:top;">ajax</td><td style="vertical-align:top;">:</td><td><div>False</div></td></tr><tr><td style="font-weight:bold;vertical-align:top;">application</td><td style="vertical-align:top;">:</td><td><div>SIGULAB</div></td></tr><tr><td style="font-weight:bold;vertical-align:top;">args</td><td style="vertical-align:top;">:</td><td><div><table></table></div></td></tr><tr><td style="font-weight:bold;vertical-align:top;">cid</td><td style="vertical-align:top;">:</td><td><div>None</div></td></tr><tr><td style="font-weight:bold;vertical-align:top;">client</td><td style="vertical-align:top;">:</td><td><div>127.0.0.1</div></td></tr><tr><td style="font-weight:bold;vertical-align:top;">controller</td><td style="vertical-align:top;">:</td><td><div>sustancias</div></td></tr><tr><td style="font-weight:bold;vertical-align:top;">cookies</td><td style="vertical-align:top;">:</td><td><div><table><tr><td style="font-weight:bold;vertical-align:top;">session_id_admin</td><td style="vertical-align:top;">:</td><td><div>127.0.0.1-2059de66-324a-42a3-81fb-85e5bcafb50d<table><tr><td style="font-weight:bold;vertical-align:top;">comment</td><td style="vertical-align:top;">:</td><td><div></div></td></tr><tr><td style="font-weight:bold;vertical-align:top;">domain</td><td style="vertical-align:top;">:</td><td><div></div></td></tr><tr><td style="font-weight:bold;vertical-align:top;">expires</td><td style="vertical-align:top;">:</td><td><div></div></td></tr><tr><td style="font-weight:bold;vertical-align:top;">httponly</td><td style="vertical-align:top;">:</td><td><div></div></td></tr><tr><td style="font-weight:bold;vertical-align:top;">max-age</td><td style="vertical-align:top;">:</td><td><div></div></td></tr><tr><td style="font-weight:bold;vertical-align:top;">path</td><td style="vertical-align:top;">:</td><td><div></div></td></tr><tr><td style="font-weight:bold;vertical-align:top;">secure</td><td style="vertical-align:top;">:</td><td><div></div></td></tr><tr><td style="font-weight:bold;vertical-align:top;">version</td><td style="vertical-align:top;">:</td><td><div></div></td></tr></table></div></td></tr><tr><td style="font-weight:bold;vertical-align:top;">session_id_sigulab</td><td style="vertical-align:top;">:</td><td><div>127.0.0.1-06c5f12c-3bed-45f6-9e2d-fbf579395da7<table><tr><td style="font-weight:bold;vertical-align:top;">comment</td><td style="vertical-align:top;">:</td><td><div></div></td></tr><tr><td style="font-weight:bold;vertical-align:top;">domain</td><td style="vertical-align:top;">:</td><td><div></div></td></tr><tr><td style="font-weight:bold;vertical-align:top;">expires</td><td style="vertical-align:top;">:</td><td><div></div></td></tr><tr><td style="font-weight:bold;vertical-align:top;">httponly</td><td style="vertical-align:top;">:</td><td><div></div></td></tr><tr><td style="font-weight:bold;vertical-align:top;">max-age</td><td style="vertical-align:top;">:</td><td><div></div></td></tr><tr><td style="font-weight:bold;vertical-align:top;">path</td><td style="vertical-align:top;">:</td><td><div></div></td></tr><tr><td style="font-weight:bold;vertical-align:top;">secure</td><td style="vertical-align:top;">:</td><td><div></div></td></tr><tr><td style="font-weight:bold;vertical-align:top;">version</td><td style="vertical-align:top;">:</td><td><div></div></td></tr></table></div></td></tr><tr><td style="font-weight:bold;vertical-align:top;">session_id_welcome</td><td style="vertical-align:top;">:</td><td><div>127.0.0.1-09deca08-e749-4879-8475-c62ed1f99331<table><tr><td style="font-weight:bold;vertical-align:top;">comment</td><td style="vertical-align:top;">:</td><td><div></div></td></tr><tr><td style="font-weight:bold;vertical-align:top;">domain</td><td style="vertical-align:top;">:</td><td><div></div></td></tr><tr><td style="font-weight:bold;vertical-align:top;">expires</td><td style="vertical-align:top;">:</td><td><div></div></td></tr><tr><td style="font-weight:bold;vertical-align:top;">httponly</td><td style="vertical-align:top;">:</td><td><div></div></td></tr><tr><td style="font-weight:bold;vertical-align:top;">max-age</td><td style="vertical-align:top;">:</td><td><div></div></td></tr><tr><td style="font-weight:bold;vertical-align:top;">path</td><td style="vertical-align:top;">:</td><td><div></div></td></tr><tr><td style="font-weight:bold;vertical-align:top;">secure</td><td style="vertical-align:top;">:</td><td><div></div></td></tr><tr><td style="font-weight:bold;vertical-align:top;">version</td><td style="vertical-align:top;">:</td><td><div></div></td></tr></table></div></td></tr></table></div></td></tr><tr><td style="font-weight:bold;vertical-align:top;">env</td><td style="vertical-align:top;">:</td><td><div><table><tr><td style="font-weight:bold;vertical-align:top;">HTTP_ACCEPT</td><td style="vertical-align:top;">:</td><td><div>text/html, application/xhtml+xml, image/jxr, */*</div></td></tr><tr><td style="font-weight:bold;vertical-align:top;">HTTP_ACCEPT_ENCODING</td><td style="vertical-align:top;">:</td><td><div>gzip, deflate</div></td></tr><tr><td style="font-weight:bold;vertical-align:top;">HTTP_ACCEPT_LANGUAGE</td><td style="vertical-align:top;">:</td><td><div>en-US,en;q=0.5</div></td></tr><tr><td style="font-weight:bold;vertical-align:top;">HTTP_CONNECTION</td><td style="vertical-align:top;">:</td><td><div>Keep-Alive</div></td></tr><tr><td style="font-weight:bold;vertical-align:top;">HTTP_COOKIE</td><td style="vertical-align:top;">:</td><td><div>session_id_welcome=127.0.0.1-09deca08-e749-4879-8475-c62ed1f99331; session_id_admin=127.0.0.1-2059de66-324a-42a3-81fb-85e5bcafb50d; session_id_sigulab=127.0.0.1-06c5f12c-3bed-45f6-9e2d-fbf579395da7</div></td></tr><tr><td style="font-weight:bold;vertical-align:top;">HTTP_HOST</td><td style="vertical-align:top;">:</td><td><div>127.0.0.1:8000</div></td></tr><tr><td style="font-weight:bold;vertical-align:top;">HTTP_REFERER</td><td style="vertical-align:top;">:</td><td><div>http://127.0.0.1:8000/SIGULAB/sustancias/select_inventario</div></td></tr><tr><td style="font-weight:bold;vertical-align:top;">HTTP_USER_AGENT</td><td style="vertical-align:top;">:</td><td><div>Mozilla/5.0 (Windows NT 10.0; Win64; x64) AppleWebKit/537.36 (KHTML, like Gecko) Chrome/51.0.2704.79 Safari/537.36 Edge/14.14393</div></td></tr><tr><td style="font-weight:bold;vertical-align:top;">PATH_INFO</td><td style="vertical-align:top;">:</td><td><div>/SIGULAB/sustancias/inventario_manage</div></td></tr><tr><td style="font-weight:bold;vertical-align:top;">QUERY_STRING</td><td style="vertical-align:top;">:</td><td><div>esp=1</div></td></tr><tr><td style="font-weight:bold;vertical-align:top;">REMOTE_ADDR</td><td style="vertical-align:top;">:</td><td><div>127.0.0.1</div></td></tr><tr><td style="font-weight:bold;vertical-align:top;">REMOTE_PORT</td><td style="vertical-align:top;">:</td><td><div>51104</div></td></tr><tr><td style="font-weight:bold;vertical-align:top;">REQUEST_METHOD</td><td style="vertical-align:top;">:</td><td><div>GET</div></td></tr><tr><td style="font-weight:bold;vertical-align:top;">SCRIPT_NAME</td><td style="vertical-align:top;">:</td><td><div></div></td></tr><tr><td style="font-weight:bold;vertical-align:top;">SERVER_NAME</td><td style="vertical-align:top;">:</td><td><div>DESKTOP-RK7361T</div></td></tr><tr><td style="font-weight:bold;vertical-align:top;">SERVER_PORT</td><td style="vertical-align:top;">:</td><td><div>8000</div></td></tr><tr><td style="font-weight:bold;vertical-align:top;">SERVER_PROTOCOL</td><td style="vertical-align:top;">:</td><td><div>HTTP/1.1</div></td></tr><tr><td style="font-weight:bold;vertical-align:top;">SERVER_SOFTWARE</td><td style="vertical-align:top;">:</td><td><div>Rocket 1.2.6</div></td></tr><tr><td style="font-weight:bold;vertical-align:top;">app_folders</td><td style="vertical-align:top;">:</td><td><div>set([&#x27;C:\\\\Users\\\\Silve\\\\Desktop\\\\web2py\\\\applications\\\\welcome\\\\&#x27;, &#x27;C:\\\\Users\\\\Silve\\\\Desktop\\\\web2py\\\\applications\\\\admin\\\\&#x27;, &#x27;C:\\\\Users\\\\Silve\\\\Desktop\\\\web2py\\\\applications\\\\SIGULAB\\\\&#x27;])</div></td></tr><tr><td style="font-weight:bold;vertical-align:top;">applications_parent</td><td style="vertical-align:top;">:</td><td><div>C:\\Users\\Silve\\Desktop\\web2py</div></td></tr><tr><td style="font-weight:bold;vertical-align:top;">cmd_args</td><td style="vertical-align:top;">:</td><td><div><table></table></div></td></tr><tr><td style="font-weight:bold;vertical-align:top;">cmd_options</td><td style="vertical-align:top;">:</td><td><div>&lt;Values at 0x2e13080: {&#x27;verbose&#x27;: False, &#x27;ip&#x27;: &#x27;127.0.0.1&#x27;, &#x27;debuglevel&#x27;: 30, &#x27;with_scheduler&#x27;: False, &#x27;shutdown_timeout&#x27;: 5, &#x27;taskbar&#x27;: False, &#x27;with_coverage&#x27;: False, &#x27;pid_filename&#x27;: &#x27;httpserver.pid&#x27;, &#x27;maxthreads&#x27;: None, &#x27;softcron&#x27;: False, &#x27;server_name&#x27;: &#x27;DESKTOP-RK7361T&#x27;, &#x27;bpython&#x27;: False, &#x27;nogui&#x27;: False, &#x27;port&#x27;: 8000, &#x27;print_errors&#x27;: False, &#x27;extcron&#x27;: False, &#x27;runcron&#x27;: False, &#x27;run_system_tests&#x27;: False, &#x27;test&#x27;: None, &#x27;folder&#x27;: &#x27;C:\\\\Users\\\\Silve\\\\Desktop\\\\web2py&#x27;, &#x27;config&#x27;: &#x27;&#x27;, &#x27;minthreads&#x27;: None, &#x27;shell&#x27;: None, &#x27;run&#x27;: &#x27;&#x27;, &#x27;log_filename&#x27;: &#x27;httpserver.log&#x27;, &#x27;profiler_dir&#x27;: None, &#x27;args&#x27;: [&#x27;&#x27;], &#x27;socket_timeout&#x27;: 5, &#x27;ssl_ca_certificate&#x27;: None, &#x27;scheduler&#x27;: None, &#x27;interfaces&#x27;: None, &#x27;ssl_private_key&#x27;: &#x27;&#x27;, &#x27;gae&#x27;: None, &#x27;password&#x27;: &#x27;******&#x27;, &#x27;request_queue_size&#x27;: 5, &#x27;ssl_certificate&#x27;: &#x27;&#x27;, &#x27;cronjob&#x27;: False, &#x27;numthreads&#x27;: None, &#x27;quiet&#x27;: False, &#x27;import_models&#x27;: False, &#x27;timeout&#x27;: 10, &#x27;plain&#x27;: False, &#x27;nobanner&#x27;: False}&gt;</div></td></tr><tr><td style="font-weight:bold;vertical-align:top;">db_sessions</td><td style="vertical-align:top;">:</td><td><div>set([])</div></td></tr><tr><td style="font-weight:bold;vertical-align:top;">debugging</td><td style="vertical-align:top;">:</td><td><div>False</div></td></tr><tr><td style="font-weight:bold;vertical-align:top;">gluon_parent</td><td style="vertical-align:top;">:</td><td><div>C:\\Users\\Silve\\Desktop\\web2py</div></td></tr><tr><td style="font-weight:bold;vertical-align:top;">http_accept</td><td style="vertical-align:top;">:</td><td><div>text/html, application/xhtml+xml, image/jxr, */*</div></td></tr><tr><td style="font-weight:bold;vertical-align:top;">http_accept_encoding</td><td style="vertical-align:top;">:</td><td><div>gzip, deflate</div></td></tr><tr><td style="font-weight:bold;vertical-align:top;">http_accept_language</td><td style="vertical-align:top;">:</td><td><div>en-US,en;q=0.5</div></td></tr><tr><td style="font-weight:bold;vertical-align:top;">http_connection</td><td style="vertical-align:top;">:</td><td><div>Keep-Alive</div></td></tr><tr><td style="font-weight:bold;vertical-align:top;">http_cookie</td><td style="vertical-align:top;">:</td><td><div>session_id_welcome=127.0.0.1-09deca08-e749-4879-8475-c62ed1f99331; session_id_admin=127.0.0.1-2059de66-324a-42a3-81fb-85e5bcafb50d; session_id_sigulab=127.0.0.1-06c5f12c-3bed-45f6-9e2d-fbf579395da7</div></td></tr><tr><td style="font-weight:bold;vertical-align:top;">http_host</td><td style="vertical-align:top;">:</td><td><div>127.0.0.1:8000</div></td></tr><tr><td style="font-weight:bold;vertical-align:top;">http_referer</td><td style="vertical-align:top;">:</td><td><div>http://127.0.0.1:8000/SIGULAB/sustancias/select_inventario</div></td></tr><tr><td style="font-weight:bold;vertical-align:top;">http_user_agent</td><td style="vertical-align:top;">:</td><td><div>Mozilla/5.0 (Windows NT 10.0; Win64; x64) AppleWebKit/537.36 (KHTML, like Gecko) Chrome/51.0.2704.79 Safari/537.36 Edge/14.14393</div></td></tr><tr><td style="font-weight:bold;vertical-align:top;">is_jython</td><td style="vertical-align:top;">:</td><td><div>False</div></td></tr><tr><td style="font-weight:bold;vertical-align:top;">is_pypy</td><td style="vertical-align:top;">:</td><td><div>False</div></td></tr><tr><td style="font-weight:bold;vertical-align:top;">is_source</td><td style="vertical-align:top;">:</td><td><div>False</div></td></tr><tr><td style="font-weight:bold;vertical-align:top;">local_hosts</td><td style="vertical-align:top;">:</td><td><div><table><tr><td><div>DESKTOP-RK7361T</div></td></tr><tr><td><div>DESKTOP-RK7361T.Belkin</div></td></tr><tr><td><div>192.168.2.3</div></td></tr><tr><td><div>fe80::1489:224:362d:6147%18</div></td></tr><tr><td><div>::ffff:127.0.0.1</div></td></tr><tr><td><div>::1</div></td></tr><tr><td><div>fe80::a58c:76e:d625:9406%16</div></td></tr><tr><td><div>2001:0:34e5:77c4:1489:224:362d:6147</div></td></tr><tr><td><div>127.0.0.1</div></td></tr></table></div></td></tr><tr><td style="font-weight:bold;vertical-align:top;">path_info</td><td style="vertical-align:top;">:</td><td><div>/SIGULAB/sustancias/inventario_manage</div></td></tr><tr><td style="font-weight:bold;vertical-align:top;">query_string</td><td style="vertical-align:top;">:</td><td><div>esp=1</div></td></tr><tr><td style="font-weight:bold;vertical-align:top;">remote_addr</td><td style="vertical-align:top;">:</td><td><div>127.0.0.1</div></td></tr><tr><td style="font-weight:bold;vertical-align:top;">remote_port</td><td style="vertical-align:top;">:</td><td><div>51104</div></td></tr><tr><td style="font-weight:bold;vertical-align:top;">request_method</td><td style="vertical-align:top;">:</td><td><div>GET</div></td></tr><tr><td style="font-weight:bold;vertical-align:top;">request_uri</td><td style="vertical-align:top;">:</td><td><div>/SIGULAB/sustancias/inventario_manage?esp=1</div></td></tr><tr><td style="font-weight:bold;vertical-align:top;">script_name</td><td style="vertical-align:top;">:</td><td><div></div></td></tr><tr><td style="font-weight:bold;vertical-align:top;">server_name</td><td style="vertical-align:top;">:</td><td><div>DESKTOP-RK7361T</div></td></tr><tr><td style="font-weight:bold;vertical-align:top;">server_port</td><td style="vertical-align:top;">:</td><td><div>8000</div></td></tr><tr><td style="font-weight:bold;vertical-align:top;">server_protocol</td><td style="vertical-align:top;">:</td><td><div>HTTP/1.1</div></td></tr><tr><td style="font-weight:bold;vertical-align:top;">server_software</td><td style="vertical-align:top;">:</td><td><div>Rocket 1.2.6</div></td></tr><tr><td style="font-weight:bold;vertical-align:top;">web2py_path</td><td style="vertical-align:top;">:</td><td><div>C:\\Users\\Silve\\Desktop\\web2py</div></td></tr><tr><td style="font-weight:bold;vertical-align:top;">web2py_version</td><td style="vertical-align:top;">:</td><td><div>2.14.6-stable+timestamp.2016.05.10.00.21.47</div></td></tr><tr><td style="font-weight:bold;vertical-align:top;">wsgi.errors</td><td style="vertical-align:top;">:</td><td><div>&lt;open file &#x27;&lt;stderr&gt;&#x27;, mode &#x27;w&#x27; at 0x0220D0D0&gt;</div></td></tr><tr><td style="font-weight:bold;vertical-align:top;">wsgi.file_wrapper</td><td style="vertical-align:top;">:</td><td><div>&lt;class wsgiref.util.FileWrapper at 0x030572D0&gt;</div></td></tr><tr><td style="font-weight:bold;vertical-align:top;">wsgi.input</td><td style="vertical-align:top;">:</td><td><div>&lt;socket._fileobject object at 0x08585DB0&gt;</div></td></tr><tr><td style="font-weight:bold;vertical-align:top;">wsgi.multiprocess</td><td style="vertical-align:top;">:</td><td><div>False</div></td></tr><tr><td style="font-weight:bold;vertical-align:top;">wsgi.multithread</td><td style="vertical-align:top;">:</td><td><div>True</div></td></tr><tr><td style="font-weight:bold;vertical-align:top;">wsgi.run_once</td><td style="vertical-align:top;">:</td><td><div>False</div></td></tr><tr><td style="font-weight:bold;vertical-align:top;">wsgi.url_scheme</td><td style="vertical-align:top;">:</td><td><div>http</div></td></tr><tr><td style="font-weight:bold;vertical-align:top;">wsgi.version</td><td style="vertical-align:top;">:</td><td><div><table><tr><td><div>1</div></td></tr><tr><td><div>0</div></td></tr></table></div></td></tr><tr><td style="font-weight:bold;vertical-align:top;">wsgi_errors</td><td style="vertical-align:top;">:</td><td><div>&lt;open file &#x27;&lt;stderr&gt;&#x27;, mode &#x27;w&#x27; at 0x0220D0D0&gt;</div></td></tr><tr><td style="font-weight:bold;vertical-align:top;">wsgi_file_wrapper</td><td style="vertical-align:top;">:</td><td><div>&lt;class wsgiref.util.FileWrapper at 0x030572D0&gt;</div></td></tr><tr><td style="font-weight:bold;vertical-align:top;">wsgi_input</td><td style="vertical-align:top;">:</td><td><div>&lt;socket._fileobject object at 0x08585DB0&gt;</div></td></tr><tr><td style="font-weight:bold;vertical-align:top;">wsgi_multiprocess</td><td style="vertical-align:top;">:</td><td><div>False</div></td></tr><tr><td style="font-weight:bold;vertical-align:top;">wsgi_multithread</td><td style="vertical-align:top;">:</td><td><div>True</div></td></tr><tr><td style="font-weight:bold;vertical-align:top;">wsgi_run_once</td><td style="vertical-align:top;">:</td><td><div>False</div></td></tr><tr><td style="font-weight:bold;vertical-align:top;">wsgi_url_scheme</td><td style="vertical-align:top;">:</td><td><div>http</div></td></tr><tr><td style="font-weight:bold;vertical-align:top;">wsgi_version</td><td style="vertical-align:top;">:</td><td><div><table><tr><td><div>1</div></td></tr><tr><td><div>0</div></td></tr></table></div></td></tr></table></div></td></tr><tr><td style="font-weight:bold;vertical-align:top;">extension</td><td style="vertical-align:top;">:</td><td><div>html</div></td></tr><tr><td style="font-weight:bold;vertical-align:top;">folder</td><td style="vertical-align:top;">:</td><td><div>C:\\Users\\Silve\\Desktop\\web2py\\applications\\SIGULAB\\</div></td></tr><tr><td style="font-weight:bold;vertical-align:top;">function</td><td style="vertical-align:top;">:</td><td><div>inventario_manage</div></td></tr><tr><td style="font-weight:bold;vertical-align:top;">global_settings</td><td style="vertical-align:top;">:</td><td><div><table><tr><td style="font-weight:bold;vertical-align:top;">app_folders</td><td style="vertical-align:top;">:</td><td><div>set([&#x27;C:\\\\Users\\\\Silve\\\\Desktop\\\\web2py\\\\applications\\\\welcome\\\\&#x27;, &#x27;C:\\\\Users\\\\Silve\\\\Desktop\\\\web2py\\\\applications\\\\admin\\\\&#x27;, &#x27;C:\\\\Users\\\\Silve\\\\Desktop\\\\web2py\\\\applications\\\\SIGULAB\\\\&#x27;])</div></td></tr><tr><td style="font-weight:bold;vertical-align:top;">applications_parent</td><td style="vertical-align:top;">:</td><td><div>C:\\Users\\Silve\\Desktop\\web2py</div></td></tr><tr><td style="font-weight:bold;vertical-align:top;">cmd_args</td><td style="vertical-align:top;">:</td><td><div><table></table></div></td></tr><tr><td style="font-weight:bold;vertical-align:top;">cmd_options</td><td style="vertical-align:top;">:</td><td><div>&lt;Values at 0x2e13080: {&#x27;verbose&#x27;: False, &#x27;ip&#x27;: &#x27;127.0.0.1&#x27;, &#x27;debuglevel&#x27;: 30, &#x27;with_scheduler&#x27;: False, &#x27;shutdown_timeout&#x27;: 5, &#x27;taskbar&#x27;: False, &#x27;with_coverage&#x27;: False, &#x27;pid_filename&#x27;: &#x27;httpserver.pid&#x27;, &#x27;maxthreads&#x27;: None, &#x27;softcron&#x27;: False, &#x27;server_name&#x27;: &#x27;DESKTOP-RK7361T&#x27;, &#x27;bpython&#x27;: False, &#x27;nogui&#x27;: False, &#x27;port&#x27;: 8000, &#x27;print_errors&#x27;: False, &#x27;extcron&#x27;: False, &#x27;runcron&#x27;: False, &#x27;run_system_tests&#x27;: False, &#x27;test&#x27;: None, &#x27;folder&#x27;: &#x27;C:\\\\Users\\\\Silve\\\\Desktop\\\\web2py&#x27;, &#x27;config&#x27;: &#x27;&#x27;, &#x27;minthreads&#x27;: None, &#x27;shell&#x27;: None, &#x27;run&#x27;: &#x27;&#x27;, &#x27;log_filename&#x27;: &#x27;httpserver.log&#x27;, &#x27;profiler_dir&#x27;: None, &#x27;args&#x27;: [&#x27;&#x27;], &#x27;socket_timeout&#x27;: 5, &#x27;ssl_ca_certificate&#x27;: None, &#x27;scheduler&#x27;: None, &#x27;interfaces&#x27;: None, &#x27;ssl_private_key&#x27;: &#x27;&#x27;, &#x27;gae&#x27;: None, &#x27;password&#x27;: &#x27;******&#x27;, &#x27;request_queue_size&#x27;: 5, &#x27;ssl_certificate&#x27;: &#x27;&#x27;, &#x27;cronjob&#x27;: False, &#x27;numthreads&#x27;: None, &#x27;quiet&#x27;: False, &#x27;import_models&#x27;: False, &#x27;timeout&#x27;: 10, &#x27;plain&#x27;: False, &#x27;nobanner&#x27;: False}&gt;</div></td></tr><tr><td style="font-weight:bold;vertical-align:top;">db_sessions</td><td style="vertical-align:top;">:</td><td><div>set([])</div></td></tr><tr><td style="font-weight:bold;vertical-align:top;">debugging</td><td style="vertical-align:top;">:</td><td><div>False</div></td></tr><tr><td style="font-weight:bold;vertical-align:top;">gluon_parent</td><td style="vertical-align:top;">:</td><td><div>C:\\Users\\Silve\\Desktop\\web2py</div></td></tr><tr><td style="font-weight:bold;vertical-align:top;">is_jython</td><td style="vertical-align:top;">:</td><td><div>False</div></td></tr><tr><td style="font-weight:bold;vertical-align:top;">is_pypy</td><td style="vertical-align:top;">:</td><td><div>False</div></td></tr><tr><td style="font-weight:bold;vertical-align:top;">is_source</td><td style="vertical-align:top;">:</td><td><div>False</div></td></tr><tr><td style="font-weight:bold;vertical-align:top;">local_hosts</td><td style="vertical-align:top;">:</td><td><div><table><tr><td><div>DESKTOP-RK7361T</div></td></tr><tr><td><div>DESKTOP-RK7361T.Belkin</div></td></tr><tr><td><div>192.168.2.3</div></td></tr><tr><td><div>fe80::1489:224:362d:6147%18</div></td></tr><tr><td><div>::ffff:127.0.0.1</div></td></tr><tr><td><div>::1</div></td></tr><tr><td><div>fe80::a58c:76e:d625:9406%16</div></td></tr><tr><td><div>2001:0:34e5:77c4:1489:224:362d:6147</div></td></tr><tr><td><div>127.0.0.1</div></td></tr></table></div></td></tr><tr><td style="font-weight:bold;vertical-align:top;">web2py_version</td><td style="vertical-align:top;">:</td><td><div>2.14.6-stable+timestamp.2016.05.10.00.21.47</div></td></tr></table></div></td></tr><tr><td style="font-weight:bold;vertical-align:top;">is_https</td><td style="vertical-align:top;">:</td><td><div>False</div></td></tr><tr><td style="font-weight:bold;vertical-align:top;">is_local</td><td style="vertical-align:top;">:</td><td><div>True</div></td></tr><tr><td style="font-weight:bold;vertical-align:top;">is_restful</td><td style="vertical-align:top;">:</td><td><div>False</div></td></tr><tr><td style="font-weight:bold;vertical-align:top;">is_scheduler</td><td style="vertical-align:top;">:</td><td><div>False</div></td></tr><tr><td style="font-weight:bold;vertical-align:top;">is_shell</td><td style="vertical-align:top;">:</td><td><div>False</div></td></tr><tr><td style="font-weight:bold;vertical-align:top;">now</td><td style="vertical-align:top;">:</td><td><div>datetime.datetime(2017, 2, 14, 9, 58, 13, 629000)</div></td></tr><tr><td style="font-weight:bold;vertical-align:top;">raw_args</td><td style="vertical-align:top;">:</td><td><div></div></td></tr><tr><td style="font-weight:bold;vertical-align:top;">raw_extension</td><td style="vertical-align:top;">:</td><td><div>None</div></td></tr><tr><td style="font-weight:bold;vertical-align:top;">url</td><td style="vertical-align:top;">:</td><td><div>/SIGULAB/sustancias/inventario_manage</div></td></tr><tr><td style="font-weight:bold;vertical-align:top;">utcnow</td><td style="vertical-align:top;">:</td><td><div>datetime.datetime(2017, 2, 14, 13, 58, 13, 629000)</div></td></tr><tr><td style="font-weight:bold;vertical-align:top;">wsgi</td><td style="vertical-align:top;">:</td><td><div>&lt;gluon.main.LazyWSGI object at 0x0876D3F0&gt;</div></td></tr></table></div>'
tRp58
sS'frames'
p59
(lp60
(dp61
S'file'
p62
S'C:\\Users\\Silve\\Desktop\\web2py\\gluon\\restricted.py'
p63
sS'dump'
p64
(dp65
S'environment'
p66
S"{'A': <class 'gluon.html.A'>, 'ANY_OF': <class 'gluon.validators.ANY_OF'>, 'ASSIGNJS': <function ASSIGNJS>, 'AppConfig': <function AppConfig>, 'Auth': <class 'gluon.tools.Auth'>, 'B': <class 'gluon.html.B'>, 'BEAUTIFY': <class 'gluon.html.BEAUTIFY'>, 'BODY': <class 'gluon.html.BODY'>, 'BR': <class 'gluon.html.BR'>, 'BUTTON': <class 'gluon.html.BUTTON'>, ...}"
p67
sS'ccode'
p68
S'<code object <module> at 0914A140, file "C:\\User...tions\\SIGULAB\\controllers/sustancias.py", line 2>'
p69
ssS'lnum'
p70
I227
sS'lines'
p71
(dp72
I224
S'            ccode = code'
p73
sI225
S'        else:'
p74
sI226
S'            ccode = compile2(code, layer)'
p75
sI227
S'        exec ccode in environment'
p76
sI228
S'    except HTTP:'
p77
sI229
S'        raise'
p78
sI230
S'    except RestrictedError:'
p79
sI231
S'        # do not encapsulate (obfuscate) the original RestrictedError'
p80
sI222
S'    try:'
p81
sI223
S'        if isinstance(code, types.CodeType):'
p82
ssS'call'
p83
S"(code='# -*- coding: utf-8 -*-\\nfrom gluon.tools import ...sponse._vars=response._caller(inventario_manage)\\n', environment={'A': <class 'gluon.html.A'>, 'ANY_OF': <class 'gluon.validators.ANY_OF'>, 'ASSIGNJS': <function ASSIGNJS>, 'AppConfig': <function AppConfig>, 'Auth': <class 'gluon.tools.Auth'>, 'B': <class 'gluon.html.B'>, 'BEAUTIFY': <class 'gluon.html.BEAUTIFY'>, 'BODY': <class 'gluon.html.BODY'>, 'BR': <class 'gluon.html.BR'>, 'BUTTON': <class 'gluon.html.BUTTON'>, ...}, layer=r'C:\\Users\\Silve\\Desktop\\web2py\\applications\\SIGULAB\\controllers/sustancias.py')"
p84
sS'func'
p85
S'restricted'
p86
sa(dp87
g62
S'C:\\Users\\Silve\\Desktop\\web2py\\applications\\SIGULAB\\controllers\\sustancias.py'
p88
sg64
(dp89
sg70
I207
sg71
(dp90
I196
S'        if row.f_ingreso == 0:'
p91
sI197
S'            row.update_record(f_cantidad = row.f_consumo)'
p92
sI198
S'        else:'
p93
sI199
S'            row.update_record(f_cantidad = row.f_ingreso)'
p94
sI200
S''
sI201
S'    table = SQLFORM.smartgrid(db.t_bitacora,constraints=dict(t_bitacora=query),oncreate=insert_bitacora,'
p95
sI202
S'    orderby=~db.t_bitacora.f_fechaingreso,csv=False,links_in_grid=False,deletable=False,'
p96
sI203
S'    user_signature=True,onvalidation=validar_bitacora,paginate=10,onupdate=update_bitacora)'
p97
sI204
S''
sI205
S'    return locals()'
p98
ssg83
S'()'
p99
sg85
S'<module>'
p100
sa(dp101
g62
S'C:\\Users\\Silve\\Desktop\\web2py\\gluon\\globals.py'
p102
sg64
(dp103
S'self'
p104
S'undefined'
p105
sS'f'
S'<function inventario_manage>'
p106
ssg70
I417
sg71
(dp107
I416
S'        self._vars = None'
p108
sI417
S'        self._caller = lambda f: f()'
p109
sI418
S'        self._view_environment = None'
p110
sI419
S'        self._custom_commit = None'
p111
sI420
S'        self._custom_rollback = None'
p112
sI421
S"        self.generic_patterns = ['*']"
p113
sI412
S"        self.flash = ''            # used by the default view layout"
p114
sI413
S'        self.meta = Storage()      # used by web2py_ajax.html'
p115
sI414
S'        self.menu = []             # used by the default view layout'
p116
sI415
S'        self.files = []            # used by web2py_ajax.html'
p117
ssg83
S'(f=<function inventario_manage>)'
p118
sg85
S'<lambda>'
p119
sa(dp120
g62
S'C:\\Users\\Silve\\Desktop\\web2py\\gluon\\tools.py'
p121
sg64
(dp122
S'action'
p123
S'<function inventario_manage>'
p124
sS'a'
S'()'
p125
sS'b'
g45
ssg70
I4241
sg71
(dp126
I4236
S'                    flag = condition'
p127
sI4237
S'                if not flag:'
p128
sI4238
S'                    current.session.flash = self.messages.access_denied'
p129
sI4239
S'                    return call_or_redirect('
p130
sI4240
S'                        self.settings.on_failed_authorization)'
p131
sI4241
S'                return action(*a, **b)'
p132
sI4242
S'            f.__doc__ = action.__doc__'
p133
sI4243
S'            f.__name__ = action.__name__'
p134
sI4244
S'            f.__dict__.update(action.__dict__)'
p135
sI4245
S'            return f'
p136
ssg83
S'(*a=(), **b={})'
p137
sg85
S'f'
sa(dp138
g62
S'C:\\Users\\Silve\\Desktop\\web2py\\applications\\SIGULAB\\controllers\\sustancias.py'
p139
sg64
(dp140
S'db.t_seccion'
p141
S'<Table t_seccion (id, f_seccion, f_laboratorio, f_jefe)>'
p142
sS'builtinstr'
p143
S"<type 'str'>"
p144
sS'db.t_seccion.id'
p145
S'<pydal.objects.Field object>'
p146
sS'db.t_espaciofisico'
p147
S'<Table t_espaciofisico (id, f_espacio, f_direccion, f_seccion, f_tecnico)>'
p148
sS').select'
p149
g105
sS'db.t_espaciofisico.f_seccion'
p150
S'<pydal.objects.Field object>'
p151
sS'seccion'
p152
S'False'
p153
sS'global db'
p154
S'<DAL uri="postgres:******@localhost/sigulab">'
p155
sS'request.vars'
p156
S"<Storage {'esp': '1'}>"
p157
sS'builtinint'
p158
S"<type 'int'>"
p159
sS'db.t_seccion.f_seccion'
p160
S'<pydal.objects.Field object>'
p161
sS'global request'
p162
S"<Storage {'_vars': <Storage {'esp': '1'}>, 'func...ilve\\\\Desktop\\\\web2py\\\\applications\\\\SIGULAB\\\\'}>"
p163
ssg70
I145
sg71
(dp164
I140
S"    espF = request.vars['esp']"
p165
sI141
S'    query = db.t_inventario.f_espaciofisico == espF'
p166
sI142
S'    db.t_inventario.f_espaciofisico.default = espF'
p167
sI143
S''
sI144
S"    if request.vars['esp']:"
p168
sI145
S"        seccion = int(str(db((db.t_espaciofisico.f_seccion == request.vars['esp'])&(db.t_seccion.id == db.t_espaciofisico.f_seccion)).select(db.t_seccion.f_seccion))[21:-2])"
p169
sI146
S'        labs = str( db((db.t_seccion.id == seccion) ).select(db.t_seccion.f_laboratorio) )[25:-2]'
p170
sI147
S''
sI148
S"    if (request.vars['secc']):"
p171
sI149
S"        labs = str(db(db.t_seccion.id == request.vars['secc']).select(db.t_seccion.f_laboratorio))[25:]"
p172
ssg83
S'()'
p173
sg85
S'inventario_manage'
p174
sasS'pyver'
p175
S'Python 2.7.9: C:\\Users\\Silve\\Desktop\\web2py\\web2py.exe (prefix: C:\\Python27)'
p176
sS'session'
p177
g57
(S's\xf0\x08\x00\x00<div><table><tr><td style="font-weight:bold;vertical-align:top;">auth</td><td style="vertical-align:top;">:</td><td><div><table><tr><td style="font-weight:bold;vertical-align:top;">expiration</td><td style="vertical-align:top;">:</td><td><div>3600</div></td></tr><tr><td style="font-weight:bold;vertical-align:top;">hmac_key</td><td style="vertical-align:top;">:</td><td><div>e9a29e51-f13a-406f-a6e2-2f2afc17ef71</div></td></tr><tr><td style="font-weight:bold;vertical-align:top;">last_visit</td><td style="vertical-align:top;">:</td><td><div>datetime.datetime(2017, 2, 14, 9, 54, 45, 657000)</div></td></tr><tr><td style="font-weight:bold;vertical-align:top;">remember_me</td><td style="vertical-align:top;">:</td><td><div>False</div></td></tr><tr><td style="font-weight:bold;vertical-align:top;">user</td><td style="vertical-align:top;">:</td><td><div><table><tr><td style="font-weight:bold;vertical-align:top;">email</td><td style="vertical-align:top;">:</td><td><div>webmaster@sigulab.com</div></td></tr><tr><td style="font-weight:bold;vertical-align:top;">first_name</td><td style="vertical-align:top;">:</td><td><div>Super</div></td></tr><tr><td style="font-weight:bold;vertical-align:top;">id</td><td style="vertical-align:top;">:</td><td><div>1L</div></td></tr><tr><td style="font-weight:bold;vertical-align:top;">last_name</td><td style="vertical-align:top;">:</td><td><div>Usuario</div></td></tr><tr><td style="font-weight:bold;vertical-align:top;">registration_id</td><td style="vertical-align:top;">:</td><td><div></div></td></tr><tr><td style="font-weight:bold;vertical-align:top;">registration_key</td><td style="vertical-align:top;">:</td><td><div></div></td></tr><tr><td style="font-weight:bold;vertical-align:top;">reset_password_key</td><td style="vertical-align:top;">:</td><td><div></div></td></tr></table></div></td></tr><tr><td style="font-weight:bold;vertical-align:top;">user_groups</td><td style="vertical-align:top;">:</td><td><div><table><tr><td style="font-weight:bold;vertical-align:top;">1</td><td style="vertical-align:top;">:</td><td><div>WebMaster</div></td></tr></table></div></td></tr></table></div></td></tr><tr><td style="font-weight:bold;vertical-align:top;">flash</td><td style="vertical-align:top;">:</td><td><div>None</div></td></tr></table></div>'
tRp178
sS'etype'
p179
S"<type 'exceptions.ValueError'>"
p180
sS'date'
p181
S'Tue Feb 14 09:58:13 2017'
p182
sS'response'
p183
g57
(S's\xd6&\x00\x00<div><table><tr><td style="font-weight:bold;vertical-align:top;">body</td><td style="vertical-align:top;">:</td><td><div>&lt;cStringIO.StringO object at 0x0936A960&gt;</div></td></tr><tr><td style="font-weight:bold;vertical-align:top;">cookies</td><td style="vertical-align:top;">:</td><td><div><table><tr><td style="font-weight:bold;vertical-align:top;">session_id_sigulab</td><td style="vertical-align:top;">:</td><td><div>127.0.0.1-06c5f12c-3bed-45f6-9e2d-fbf579395da7<table><tr><td style="font-weight:bold;vertical-align:top;">comment</td><td style="vertical-align:top;">:</td><td><div></div></td></tr><tr><td style="font-weight:bold;vertical-align:top;">domain</td><td style="vertical-align:top;">:</td><td><div></div></td></tr><tr><td style="font-weight:bold;vertical-align:top;">expires</td><td style="vertical-align:top;">:</td><td><div></div></td></tr><tr><td style="font-weight:bold;vertical-align:top;">httponly</td><td style="vertical-align:top;">:</td><td><div></div></td></tr><tr><td style="font-weight:bold;vertical-align:top;">max-age</td><td style="vertical-align:top;">:</td><td><div></div></td></tr><tr><td style="font-weight:bold;vertical-align:top;">path</td><td style="vertical-align:top;">:</td><td><div>/</div></td></tr><tr><td style="font-weight:bold;vertical-align:top;">secure</td><td style="vertical-align:top;">:</td><td><div></div></td></tr><tr><td style="font-weight:bold;vertical-align:top;">version</td><td style="vertical-align:top;">:</td><td><div></div></td></tr></table></div></td></tr></table></div></td></tr><tr><td style="font-weight:bold;vertical-align:top;">delimiters</td><td style="vertical-align:top;">:</td><td><div><table><tr><td><div>{{</div></td></tr><tr><td><div>}}</div></td></tr></table></div></td></tr><tr><td style="font-weight:bold;vertical-align:top;">files</td><td style="vertical-align:top;">:</td><td><div><table></table></div></td></tr><tr><td style="font-weight:bold;vertical-align:top;">flash</td><td style="vertical-align:top;">:</td><td><div></div></td></tr><tr><td style="font-weight:bold;vertical-align:top;">form_label_separator</td><td style="vertical-align:top;">:</td><td><div></div></td></tr><tr><td style="font-weight:bold;vertical-align:top;">formstyle</td><td style="vertical-align:top;">:</td><td><div>bootstrap3_inline</div></td></tr><tr><td style="font-weight:bold;vertical-align:top;">generic_patterns</td><td style="vertical-align:top;">:</td><td><div><table><tr><td><div>*</div></td></tr></table></div></td></tr><tr><td style="font-weight:bold;vertical-align:top;">headers</td><td style="vertical-align:top;">:</td><td><div><table><tr><td style="font-weight:bold;vertical-align:top;">X-Powered-By</td><td style="vertical-align:top;">:</td><td><div>web2py</div></td></tr></table></div></td></tr><tr><td style="font-weight:bold;vertical-align:top;">menu</td><td style="vertical-align:top;">:</td><td><div><table><tr><td><div><table><tr><td><div>Home</div></td></tr><tr><td><div>False</div></td></tr><tr><td><div>/SIGULAB/default/index</div></td></tr><tr><td><div><table></table></div></td></tr></table></div></td></tr><tr><td><div><table><tr><td><div>SMyDP</div></td></tr><tr><td><div>False</div></td></tr><tr><td><div>None</div></td></tr><tr><td><div><table><tr><td><div><table><tr><td><div>Inventario</div></td></tr><tr><td><div>/SIGULAB/sustancias/select_inventario</div></td></tr><tr><td><div>/SIGULAB/sustancias/select_inventario</div></td></tr></table></div></td></tr><tr><td><div><table><tr><td><div>Listado de Sustancias</div></td></tr><tr><td><div>/SIGULAB/sustancias/sustanciapeligrosa_manage</div></td></tr><tr><td><div>/SIGULAB/sustancias/sustanciapeligrosa_manage</div></td></tr></table></div></td></tr></table></div></td></tr></table></div></td></tr><tr><td><div><table><tr><td><div>Solicitudes</div></td></tr><tr><td><div>False</div></td></tr><tr><td><div>None</div></td></tr><tr><td><div><table><tr><td><div><table><tr><td><div>Entrada</div></td></tr><tr><td><div>/SIGULAB/s_entrada/entrada</div></td></tr><tr><td><div>/SIGULAB/s_entrada/entrada</div></td></tr></table></div></td></tr><tr><td><div><table><tr><td><div>Salida</div></td></tr><tr><td><div>/SIGULAB/s_entrada/salida</div></td></tr><tr><td><div>/SIGULAB/s_entrada/salida</div></td></tr></table></div></td></tr></table></div></td></tr></table></div></td></tr><tr><td><div><table><tr><td><div>Prestamos</div></td></tr><tr><td><div>False</div></td></tr><tr><td><div>None</div></td></tr><tr><td><div><table><tr><td><div><table><tr><td><div>Por devolver</div></td></tr><tr><td><div>/SIGULAB/s_entrada/p_por_devolver</div></td></tr><tr><td><div>/SIGULAB/s_entrada/p_por_devolver</div></td></tr></table></div></td></tr><tr><td><div><table><tr><td><div>Por recibir</div></td></tr><tr><td><div>/SIGULAB/s_entrada/p_por_recibir</div></td></tr><tr><td><div>/SIGULAB/s_entrada/p_por_recibir</div></td></tr></table></div></td></tr></table></div></td></tr></table></div></td></tr><tr><td><div><table><tr><td><div>Gesti\xc3\xb3n</div></td></tr><tr><td><div>False</div></td></tr><tr><td><div>None</div></td></tr><tr><td><div><table><tr><td><div><table><tr><td><div>Usuarios Registrados</div></td></tr><tr><td><div>/SIGULAB/gestion/usuarios</div></td></tr><tr><td><div>/SIGULAB/gestion/usuarios</div></td></tr></table></div></td></tr><tr><td><div><table><tr><td><div>Usuarios Autorizados</div></td></tr><tr><td><div>/SIGULAB/gestion/autorizados</div></td></tr><tr><td><div>/SIGULAB/gestion/autorizados</div></td></tr></table></div></td></tr><tr><td><div><table><tr><td><div>Privilegios</div></td></tr><tr><td><div>/SIGULAB/gestion/privilegios</div></td></tr><tr><td><div>/SIGULAB/gestion/privilegios</div></td></tr></table></div></td></tr><tr><td><div><table><tr><td><div>Membresia</div></td></tr><tr><td><div>/SIGULAB/gestion/membresia</div></td></tr><tr><td><div>/SIGULAB/gestion/membresia</div></td></tr></table></div></td></tr></table></div></td></tr></table></div></td></tr><tr><td><div><table><tr><td><div>Editar</div></td></tr><tr><td><div>False</div></td></tr><tr><td><div>/admin/default/design/SIGULAB</div></td></tr></table></div></td></tr></table></div></td></tr><tr><td style="font-weight:bold;vertical-align:top;">meta</td><td style="vertical-align:top;">:</td><td><div><table><tr><td style="font-weight:bold;vertical-align:top;">author</td><td style="vertical-align:top;">:</td><td><div>you &lt;you@example.com&gt;</div></td></tr><tr><td style="font-weight:bold;vertical-align:top;">description</td><td style="vertical-align:top;">:</td><td><div></div></td></tr><tr><td style="font-weight:bold;vertical-align:top;">keywords</td><td style="vertical-align:top;">:</td><td><div></div></td></tr></table></div></td></tr><tr><td style="font-weight:bold;vertical-align:top;">models_to_run</td><td style="vertical-align:top;">:</td><td><div><table><tr><td><div>^\\w+\\.py$</div></td></tr><tr><td><div>^sustancias/\\w+\\.py$</div></td></tr><tr><td><div>^sustancias/inventario_manage/\\w+\\.py$</div></td></tr></table></div></td></tr><tr><td style="font-weight:bold;vertical-align:top;">postprocessing</td><td style="vertical-align:top;">:</td><td><div><table></table></div></td></tr><tr><td style="font-weight:bold;vertical-align:top;">session_client</td><td style="vertical-align:top;">:</td><td><div>127.0.0.1</div></td></tr><tr><td style="font-weight:bold;vertical-align:top;">session_cookie_compression_level</td><td style="vertical-align:top;">:</td><td><div>None</div></td></tr><tr><td style="font-weight:bold;vertical-align:top;">session_cookie_expires</td><td style="vertical-align:top;">:</td><td><div>None</div></td></tr><tr><td style="font-weight:bold;vertical-align:top;">session_data_name</td><td style="vertical-align:top;">:</td><td><div>session_data_sigulab</div></td></tr><tr><td style="font-weight:bold;vertical-align:top;">session_file</td><td style="vertical-align:top;">:</td><td><div>&lt;open file &#x27;C:\\\\Users\\\\Silve\\\\Desktop\\\\web2py\\\\applications\\\\SIGULAB\\\\sessions\\\\0e6\\\\148\\\\127.0.0.1-06c5f12c-3bed-45f6-9e2d-fbf579395da7&#x27;, mode &#x27;rb+&#x27; at 0x087CB288&gt;</div></td></tr><tr><td style="font-weight:bold;vertical-align:top;">session_filename</td><td style="vertical-align:top;">:</td><td><div>C:\\Users\\Silve\\Desktop\\web2py\\applications\\SIGULAB\\sessions\\127.0.0.1-06c5f12c-3bed-45f6-9e2d-fbf579395da7</div></td></tr><tr><td style="font-weight:bold;vertical-align:top;">session_hash</td><td style="vertical-align:top;">:</td><td><div>335d450114333fb5238e73b85ab55228</div></td></tr><tr><td style="font-weight:bold;vertical-align:top;">session_id</td><td style="vertical-align:top;">:</td><td><div>127.0.0.1-06c5f12c-3bed-45f6-9e2d-fbf579395da7</div></td></tr><tr><td style="font-weight:bold;vertical-align:top;">session_id_name</td><td style="vertical-align:top;">:</td><td><div>session_id_sigulab</div></td></tr><tr><td style="font-weight:bold;vertical-align:top;">session_locked</td><td style="vertical-align:top;">:</td><td><div>True</div></td></tr><tr><td style="font-weight:bold;vertical-align:top;">session_masterapp</td><td style="vertical-align:top;">:</td><td><div>SIGULAB</div></td></tr><tr><td style="font-weight:bold;vertical-align:top;">session_new</td><td style="vertical-align:top;">:</td><td><div>False</div></td></tr><tr><td style="font-weight:bold;vertical-align:top;">session_storage_type</td><td style="vertical-align:top;">:</td><td><div>file</div></td></tr><tr><td style="font-weight:bold;vertical-align:top;">status</td><td style="vertical-align:top;">:</td><td><div>200</div></td></tr><tr><td style="font-weight:bold;vertical-align:top;">subtitle</td><td style="vertical-align:top;">:</td><td><div>Equipo</div></td></tr><tr><td style="font-weight:bold;vertical-align:top;">title</td><td style="vertical-align:top;">:</td><td><div>Sistema De Gesti\xc3\xb3n ULAB - USB</div></td></tr><tr><td style="font-weight:bold;vertical-align:top;">view</td><td style="vertical-align:top;">:</td><td><div>sustancias/inventario_manage.html</div></td></tr></table></div>'
tRp184
sS'locals'
p185
(dp186
S'labs'
p187
g153
sS'query'
p188
S'<Query (t_inventario.f_espaciofisico = 1)>'
p189
sS'seccion'
p190
g153
sS'sustancia'
p191
g153
sS'espF'
p192
S"'1'"
p193
sssS'traceback'
p194
S'Traceback (most recent call last):\n  File "C:\\Users\\Silve\\Desktop\\web2py\\gluon\\restricted.py", line 227, in restricted\n    exec ccode in environment\n  File "C:\\Users\\Silve\\Desktop\\web2py\\applications\\SIGULAB\\controllers/sustancias.py", line 207, in <module>\n  File "C:\\Users\\Silve\\Desktop\\web2py\\gluon\\globals.py", line 417, in <lambda>\n    self._caller = lambda f: f()\n  File "C:\\Users\\Silve\\Desktop\\web2py\\gluon\\tools.py", line 4241, in f\n    return action(*a, **b)\n  File "C:\\Users\\Silve\\Desktop\\web2py\\applications\\SIGULAB\\controllers/sustancias.py", line 145, in inventario_manage\n    seccion = int(str(db((db.t_espaciofisico.f_seccion == request.vars[\'esp\'])&(db.t_seccion.id == db.t_espaciofisico.f_seccion)).select(db.t_seccion.f_seccion))[21:-2])\nValueError: invalid literal for int() with base 10: \'a\'\n'
p195
s.