(dp1
S'output'
p2
S"<type 'exceptions.AttributeError'> 'DAL' object has no attribute 't_sustancias'"
p3
sS'layer'
p4
S'/home/adolfo/Desktop/PROYECTO ULAB/applications/SIGULAB/models/populate.py'
p5
sS'code'
p6
S"db.t_sustancias.insert(f_nombre='4-metilpentan-2-ona (Metilisobutilcetona)', f_cas='108-10-1', f_pureza='99', f_estado='2', f_control='1', f_peligrosidad='Inflamable')\ndb.t_sustancias.insert(f_nombre='Acetato de Etilo', f_cas='141-78-6', f_pureza='99', f_estado='2', f_control='1', f_peligrosidad='Inflamable')\ndb.t_sustancias.insert(f_nombre='Acetona', f_cas='67-64-1', f_pureza='99', f_estado='2', f_control='1', f_peligrosidad='Inflamable')\ndb.t_sustancias.insert(f_nombre='\xc3\x81cido Antran\xc3\xadlico', f_cas='118-92-3', f_pureza='99', f_estado='2', f_control='1', f_peligrosidad='Inflamable')\ndb.t_sustancias.insert(f_nombre='\xc3\x81cido Clorh\xc3\xaddrico', f_cas='7647-01-0', f_pureza='37', f_estado='2', f_control='1', f_peligrosidad='T\xc3\xb3xico')\ndb.t_sustancias.insert(f_nombre='\xc3\x81cido Fenilac\xc3\xa9tico y sus sales', f_cas='103-82-2', f_pureza='99', f_estado='2', f_control='1', f_peligrosidad='Comburente')\ndb.t_sustancias.insert(f_nombre='\xc3\x81cido N\xc3\xadtrico', f_cas='7697-37-2', f_pureza='5', f_estado='2', f_control='2', f_peligrosidad='T\xc3\xb3xico')\ndb.t_sustancias.insert(f_nombre='\xc3\x81cido P\xc3\xadcrico (trinitrofenol)', f_cas='88-89-1', f_pureza='3', f_estado='1', f_control='2', f_peligrosidad='Explosivo')\ndb.t_sustancias.insert(f_nombre='\xc3\x81cido Sulf\xc3\xbarico', f_cas='7664-93-9', f_pureza='97', f_estado='2', f_control='3', f_peligrosidad='Corrosivo')\ndb.t_sustancias.insert(f_nombre='Aluminio en polvo', f_cas='7429-90-5', f_pureza='99', f_estado='1', f_control='2', f_peligrosidad='Inflamable')\ndb.t_sustancias.insert(f_nombre='Amon\xc3\xadaco Anh\xc3\xaddrico', f_cas='7664-41-7', f_pureza='99', f_estado='2', f_control='1', f_peligrosidad='Nocivo')\ndb.t_sustancias.insert(f_nombre='Amon\xc3\xadaco en disoluci\xc3\xb3n acuosa', f_cas='001336-21-6', f_pureza='25', f_estado='2', f_control='1', f_peligrosidad='Corrosivo')\ndb.t_sustancias.insert(f_nombre='Anh\xc3\xaddrico ac\xc3\xa9tico', f_cas='108-24-7', f_pureza='99', f_estado='2', f_control='1', f_peligrosidad='Inflamable')\ndb.t_sustancias.insert(f_nombre='Azidas (de sodio)', f_cas='26628-22-8', f_pureza='99', f_estado='1', f_control='2', f_peligrosidad='T\xc3\xb3xico')\ndb.t_sustancias.insert(f_nombre='Benceno', f_cas='71-43-2', f_pureza='99', f_estado='2', f_control='2', f_peligrosidad='Inflamable')\ndb.t_sustancias.insert(f_nombre='Butanona (metilcetona)', f_cas='78-93-3', f_pureza='99', f_estado='2', f_control='1', f_peligrosidad='Inflamable')\ndb.t_sustancias.insert(f_nombre='Carbonato de Sodio', f_cas='497-19-8', f_pureza='99', f_estado='1', f_control='1', f_peligrosidad='Corrosivo')\ndb.t_sustancias.insert(f_nombre='Clorato de Potasio', f_cas='3811-04-9', f_pureza='99', f_estado='1', f_control='2', f_peligrosidad='Comburente')\ndb.t_sustancias.insert(f_nombre='Clorato de Sodio', f_cas='7775-09-9', f_pureza='99', f_estado='1', f_control='2', f_peligrosidad='Comburente')\ndb.t_sustancias.insert(f_nombre='Cloroformo', f_cas='67-66-3', f_pureza='99', f_estado='2', f_control='1', f_peligrosidad='Nocivo')\ndb.t_sustancias.insert(f_nombre='Diclorometano', f_cas='75-09-2', f_pureza='99', f_estado='2', f_control='1', f_peligrosidad='Nocivo')\ndb.t_sustancias.insert(f_nombre='Dinitrofenol', f_cas='51-28-5', f_pureza='99', f_estado='1', f_control='2', f_peligrosidad='Nocivo')\ndb.t_sustancias.insert(f_nombre='Dinitrotolueno', f_cas='606-20-2', f_pureza='99', f_estado='1', f_control='2', f_peligrosidad='Nocivo')\ndb.t_sustancias.insert(f_nombre='Etanol', f_cas='64-17-5', f_pureza='99', f_estado='2', f_control='1', f_peligrosidad='Inflamable')\ndb.t_sustancias.insert(f_nombre='Eter Et\xc3\xadlico', f_cas='60-29-7', f_pureza='99', f_estado='2', f_control='1', f_peligrosidad='Explosivo')\ndb.t_sustancias.insert(f_nombre='F\xc3\xb3sforo blanco', f_cas='7723-14-0', f_pureza='99', f_estado='1', f_control='2', f_peligrosidad='Inflamable')\n\ndb.t_sustancias.insert(f_nombre='Fulminato de Mercurio', f_cas='', f_pureza='', f_estado='', f_control='2', f_peligrosidad='N/A')\ndb.t_sustancias.insert(f_nombre='Heptano', f_cas='142-82-5', f_pureza='99', f_estado='2', f_control='1', f_peligrosidad='Inflamable')\ndb.t_sustancias.insert(f_nombre='Hexano', f_cas='110-54-3', f_pureza='99', f_estado='2', f_control='1', f_peligrosidad='Inflamable')\ndb.t_sustancias.insert(f_nombre='Hidrogenocarbonato (Bicarbonato) de Sodio', f_cas='144-55-8', f_pureza='99', f_estado='1', f_control='1', f_peligrosidad='Irritante')\ndb.t_sustancias.insert(f_nombre='Hipoclorito de calcio', f_cas='7778-54-3', f_pureza='68', f_estado='1', f_control='2', f_peligrosidad='Corrosivo')\ndb.t_sustancias.insert(f_nombre='Hipoclorito de Sodio', f_cas='7681-52-9', f_pureza='', f_estado='2', f_control='2', f_peligrosidad='Corrosivo')\ndb.t_sustancias.insert(f_nombre='Metanol', f_cas='67-56-1', f_pureza='99', f_estado='2', f_control='1', f_peligrosidad='Inflamable')\ndb.t_sustancias.insert(f_nombre='Nitrato de Amonio (salitre de chile)', f_cas='6484-52-2', f_pureza='99', f_estado='1', f_control='2', f_peligrosidad='Explosivo')\ndb.t_sustancias.insert(f_nombre='Nitrato de Bismuto', f_cas='7697-37-2', f_pureza='99', f_estado='1', f_control='2', f_peligrosidad='Corrosivo')\ndb.t_sustancias.insert(f_nombre='Nitrato de Calcio', f_cas='13477-34-4', f_pureza='99', f_estado='1', f_control='2', f_peligrosidad='T\xc3\xb3xico')\ndb.t_sustancias.insert(f_nombre='Nitrato de Plata', f_cas='7761-88-8', f_pureza='99', f_estado='1', f_control='2', f_peligrosidad='Corrosivo')\ndb.t_sustancias.insert(f_nombre='Nitrato de Plomo', f_cas='10099-74-8', f_pureza='99', f_estado='1', f_control='2', f_peligrosidad='T\xc3\xb3xico')\ndb.t_sustancias.insert(f_nombre='Nitrato de Potasio', f_cas='7757-79-1', f_pureza='99', f_estado='1', f_control='2', f_peligrosidad='Comburente')\ndb.t_sustancias.insert(f_nombre='Nitrato de Sodio', f_cas='7631-99-4', f_pureza='99', f_estado='1', f_control='2', f_peligrosidad='Comburente')\ndb.t_sustancias.insert(f_nombre='Nitrito de Sodio', f_cas='7632-00-0', f_pureza='99', f_estado='1', f_control='2', f_peligrosidad='Comburente')\ndb.t_sustancias.insert(f_nombre='Nitrobenceno', f_cas='98-95-3', f_pureza='99', f_estado='2', f_control='2', f_peligrosidad='Nocivo')\ndb.t_sustancias.insert(f_nombre='Nitrocelulosa', f_cas='9004-70-0', f_pureza='12', f_estado='1', f_control='2', f_peligrosidad='Inflamable')\ndb.t_sustancias.insert(f_nombre='Nitroglicerina', f_cas='55-63-0', f_pureza='1', f_estado='1', f_control='2', f_peligrosidad='Explosivo')\ndb.t_sustancias.insert(f_nombre='Perclorato de Potasio', f_cas='7778-74-7', f_pureza='99', f_estado='1', f_control='2', f_peligrosidad='Comburente')\ndb.t_sustancias.insert(f_nombre='Perclorato de Sodio', f_cas='7601-89-0', f_pureza='99', f_estado='1', f_control='2', f_peligrosidad='Comburente')\ndb.t_sustancias.insert(f_nombre='Permanganato de Potasio', f_cas='7722-64-7', f_pureza='99', f_estado='1', f_control='3', f_peligrosidad='Comburente')\ndb.t_sustancias.insert(f_nombre='Sesquicarbonato de Sodio', f_cas='6106-20-3', f_pureza='99', f_estado='1', f_control='1', f_peligrosidad='Corrosivo')\ndb.t_sustancias.insert(f_nombre='Sulfato de Amonio', f_cas='7783-20-2', f_pureza='99', f_estado='1', f_control='2', f_peligrosidad='Corrosivo')\ndb.t_sustancias.insert(f_nombre='Sulfato de Magnesio', f_cas='7487-88-9', f_pureza='65', f_estado='1', f_control='2', f_peligrosidad='Irritante')\ndb.t_sustancias.insert(f_nombre='Sulfuro de Potasio', f_cas='1312-73-8', f_pureza='99', f_estado='1', f_control='2', f_peligrosidad='Inflamable')\ndb.t_sustancias.insert(f_nombre='Tetrahidrofurano', f_cas='109-99-9', f_pureza='99', f_estado='2', f_control='1', f_peligrosidad='Inflamable')\ndb.t_sustancias.insert(f_nombre='Tolueno', f_cas='108-88-3', f_pureza='99', f_estado='2', f_control='1', f_peligrosidad='Inflamable')\ndb.t_sustancias.insert(f_nombre='Trinitrotolueno (TNT)', f_cas='118-96-7', f_pureza='99', f_estado='1', f_control='2', f_peligrosidad='Explosivo')\ndb.t_sustancias.insert(f_nombre='Urea', f_cas='57-13-6 ', f_pureza='', f_estado='1', f_control='2', f_peligrosidad='Irritante')\ndb.t_sustancias.insert(f_nombre='4-metilpentan-2-ona (Metilisobutilcetona)', f_cas='108-10-1', f_pureza='99', f_estado='2', f_control='1', f_peligrosidad='T\xc3\xb3xico')\ndb.t_sustancias.insert(f_nombre='Acetato de Etilo', f_cas='141-78-6', f_pureza='99', f_estado='2', f_control='1', f_peligrosidad='Irritante')\ndb.t_sustancias.insert(f_nombre='Acetona', f_cas='67-64-1', f_pureza='99', f_estado='2', f_control='1', f_peligrosidad='T\xc3\xb3xico')\ndb.t_sustancias.insert(f_nombre='\xc3\x81cido Antran\xc3\xadlico', f_cas='118-92-3', f_pureza='99', f_estado='2', f_control='1', f_peligrosidad='Comburente')\ndb.t_sustancias.insert(f_nombre='\xc3\x81cido Clorh\xc3\xaddrico', f_cas='7647-01-0', f_pureza='37', f_estado='2', f_control='1', f_peligrosidad='Corrosivo')\ndb.t_sustancias.insert(f_nombre='\xc3\x81cido N\xc3\xadtrico', f_cas='7697-37-2', f_pureza='5', f_estado='2', f_control='2', f_peligrosidad='Irritante')\ndb.t_sustancias.insert(f_nombre='\xc3\x81cido P\xc3\xadcrico (trinitrofenol)', f_cas='88-89-1', f_pureza='3', f_estado='1', f_control='2', f_peligrosidad='T\xc3\xb3xico')\ndb.t_sustancias.insert(f_nombre='\xc3\x81cido Sulf\xc3\xbarico', f_cas='7664-93-9', f_pureza='97', f_estado='2', f_control='3', f_peligrosidad='Irritante')\ndb.t_sustancias.insert(f_nombre='Amon\xc3\xadaco Anh\xc3\xaddrico', f_cas='7664-41-7', f_pureza='99', f_estado='2', f_control='1', f_peligrosidad='Inflamable')\ndb.t_sustancias.insert(f_nombre='Amon\xc3\xadaco en disoluci\xc3\xb3n acuosa', f_cas='001336-21-6', f_pureza='25', f_estado='2', f_control='1', f_peligrosidad='T\xc3\xb3xico')\ndb.t_sustancias.insert(f_nombre='Anh\xc3\xaddrico ac\xc3\xa9tico', f_cas='108-24-7', f_pureza='99', f_estado='2', f_control='1', f_peligrosidad='Nocivo')\ndb.t_sustancias.insert(f_nombre='Benceno', f_cas='71-43-2', f_pureza='99', f_estado='2', f_control='2', f_peligrosidad='T\xc3\xb3xico')\ndb.t_sustancias.insert(f_nombre='Butanona (metilcetona)', f_cas='78-93-3', f_pureza='99', f_estado='2', f_control='1', f_peligrosidad='T\xc3\xb3xico')\ndb.t_sustancias.insert(f_nombre='Carbonato de Sodio', f_cas='497-19-8', f_pureza='99', f_estado='1', f_control='1', f_peligrosidad='Irritante')\ndb.t_sustancias.insert(f_nombre='Clorato de Potasio', f_cas='3811-04-9', f_pureza='99', f_estado='1', f_control='2', f_peligrosidad='T\xc3\xb3xico')\ndb.t_sustancias.insert(f_nombre='Clorato de Sodio', f_cas='7775-09-9', f_pureza='99', f_estado='1', f_control='2', f_peligrosidad='T\xc3\xb3xico')\ndb.t_sustancias.insert(f_nombre='Cloroformo', f_cas='67-66-3', f_pureza='99', f_estado='2', f_control='1', f_peligrosidad='T\xc3\xb3xico')\ndb.t_sustancias.insert(f_nombre='Diclorometano', f_cas='75-09-2', f_pureza='99', f_estado='2', f_control='1', f_peligrosidad='Inflamable')\ndb.t_sustancias.insert(f_nombre='Dinitrofenol', f_cas='51-28-5', f_pureza='99', f_estado='1', f_control='2', f_peligrosidad='T\xc3\xb3xico')\ndb.t_sustancias.insert(f_nombre='Etanol', f_cas='64-17-5', f_pureza='99', f_estado='2', f_control='1', f_peligrosidad='Irritante')\ndb.t_sustancias.insert(f_nombre='Eter Et\xc3\xadlico', f_cas='60-29-7', f_pureza='99', f_estado='2', f_control='1', f_peligrosidad='Nocivo')\ndb.t_sustancias.insert(f_nombre='F\xc3\xb3sforo blanco', f_cas='7723-14-0', f_pureza='99', f_estado='1', f_control='2', f_peligrosidad='Nocivo')\n\ndb.t_sustancias.insert(f_nombre='Heptano', f_cas='142-82-5', f_pureza='99', f_estado='2', f_control='1', f_peligrosidad='Irritante')\ndb.t_sustancias.insert(f_nombre='Hipoclorito de calcio', f_cas='7778-54-3', f_pureza='68', f_estado='1', f_control='2', f_peligrosidad='Irritante')\ndb.t_sustancias.insert(f_nombre='Hipoclorito de Sodio', f_cas='7681-52-9', f_pureza='', f_estado='2', f_control='2', f_peligrosidad='T\xc3\xb3xico')\ndb.t_sustancias.insert(f_nombre='Metanol', f_cas='67-56-1', f_pureza='99', f_estado='2', f_control='1', f_peligrosidad='Irritante')\ndb.t_sustancias.insert(f_nombre='Nitrato de Bismuto', f_cas='7697-37-2', f_pureza='99', f_estado='1', f_control='2', f_peligrosidad='T\xc3\xb3xico')\ndb.t_sustancias.insert(f_nombre='Nitrato de Plata', f_cas='7761-88-8', f_pureza='99', f_estado='1', f_control='2', f_peligrosidad='T\xc3\xb3xico')\ndb.t_sustancias.insert(f_nombre='Nitrato de Plomo', f_cas='10099-74-8', f_pureza='99', f_estado='1', f_control='2', f_peligrosidad='T\xc3\xb3xico')\ndb.t_sustancias.insert(f_nombre='Nitrato de Potasio', f_cas='7757-79-1', f_pureza='99', f_estado='1', f_control='2', f_peligrosidad='T\xc3\xb3xico')\ndb.t_sustancias.insert(f_nombre='Nitrato de Sodio', f_cas='7631-99-4', f_pureza='99', f_estado='1', f_control='2', f_peligrosidad='T\xc3\xb3xico')\ndb.t_sustancias.insert(f_nombre='Nitrito de Sodio', f_cas='7632-00-0', f_pureza='99', f_estado='1', f_control='2', f_peligrosidad='T\xc3\xb3xico')\ndb.t_sustancias.insert(f_nombre='Nitrobenceno', f_cas='98-95-3', f_pureza='99', f_estado='2', f_control='2', f_peligrosidad='T\xc3\xb3xico')\ndb.t_sustancias.insert(f_nombre='Perclorato de Potasio', f_cas='7778-74-7', f_pureza='99', f_estado='1', f_control='2', f_peligrosidad='T\xc3\xb3xico')\ndb.t_sustancias.insert(f_nombre='Perclorato de Sodio', f_cas='7601-89-0', f_pureza='99', f_estado='1', f_control='2', f_peligrosidad='Nocivo')\ndb.t_sustancias.insert(f_nombre='Permanganato de Potasio', f_cas='7722-64-7', f_pureza='99', f_estado='1', f_control='3', f_peligrosidad='Corrosivo')\ndb.t_sustancias.insert(f_nombre='Sesquicarbonato de Sodio', f_cas='6106-20-3', f_pureza='99', f_estado='1', f_control='1', f_peligrosidad='Irritante')\ndb.t_sustancias.insert(f_nombre='Sulfato de Amonio', f_cas='7783-20-2', f_pureza='99', f_estado='1', f_control='2', f_peligrosidad='Irritante')\ndb.t_sustancias.insert(f_nombre='Sulfuro de Potasio', f_cas='1312-73-8', f_pureza='99', f_estado='1', f_control='2', f_peligrosidad='Corrosivo')\ndb.t_sustancias.insert(f_nombre='Tetrahidrofurano', f_cas='109-99-9', f_pureza='99', f_estado='2', f_control='1', f_peligrosidad='Irritante')\ndb.t_sustancias.insert(f_nombre='Tolueno', f_cas='108-88-3', f_pureza='99', f_estado='2', f_control='1', f_peligrosidad='T\xc3\xb3xico')\ndb.t_sustancias.insert(f_nombre='Trinitrotolueno (TNT)', f_cas='118-96-7', f_pureza='99', f_estado='1', f_control='2', f_peligrosidad='Nocivo')\ndb.t_sustancias.insert(f_nombre='Urea', f_cas='57-13-6 ', f_pureza='', f_estado='1', f_control='2', f_peligrosidad='Comburente')\n\n\n#####Deberian ser RL8 pero este regimen aun no esta implementado\ndb.t_sustancias.insert(f_nombre='F\xc3\xb3sforos rojos o amorfos', f_cas='7723-14-0', f_pureza='99', f_estado='1', f_control='4', f_peligrosidad='Inflamable')\ndb.t_sustancias.insert(f_nombre='F\xc3\xb3sforos rojos o amorfos', f_cas='7723-14-0', f_pureza='99', f_estado='1', f_control='4', f_peligrosidad='Nocivo')"
p7
sS'snapshot'
p8
(dp9
S'exception'
p10
(dp11
S'__hash__'
p12
S"<method-wrapper '__hash__' of exceptions.AttributeError object>"
p13
sS'__setattr__'
p14
S"<method-wrapper '__setattr__' of exceptions.AttributeError object>"
p15
sS'__reduce_ex__'
p16
S'<built-in method __reduce_ex__ of exceptions.AttributeError object>'
p17
sS'__getslice__'
p18
S"<method-wrapper '__getslice__' of exceptions.AttributeError object>"
p19
sS'__getitem__'
p20
S"<method-wrapper '__getitem__' of exceptions.AttributeError object>"
p21
sS'__setstate__'
p22
S'<built-in method __setstate__ of exceptions.AttributeError object>'
p23
sS'args'
p24
S'("\'DAL\' object has no attribute \'t_sustancias\'",)'
p25
sS'__reduce__'
p26
S'<built-in method __reduce__ of exceptions.AttributeError object>'
p27
sS'__str__'
p28
S"<method-wrapper '__str__' of exceptions.AttributeError object>"
p29
sS'__format__'
p30
S'<built-in method __format__ of exceptions.AttributeError object>'
p31
sS'__getattribute__'
p32
S"<method-wrapper '__getattribute__' of exceptions.AttributeError object>"
p33
sS'__class__'
p34
S"<type 'exceptions.AttributeError'>"
p35
sS'__unicode__'
p36
S'<built-in method __unicode__ of exceptions.AttributeError object>'
p37
sS'__delattr__'
p38
S"<method-wrapper '__delattr__' of exceptions.AttributeError object>"
p39
sS'__subclasshook__'
p40
S'<built-in method __subclasshook__ of type object>'
p41
sS'__repr__'
p42
S"<method-wrapper '__repr__' of exceptions.AttributeError object>"
p43
sS'__dict__'
p44
S'{}'
p45
sS'__sizeof__'
p46
S'<built-in method __sizeof__ of exceptions.AttributeError object>'
p47
sS'__doc__'
p48
S"'Attribute not found.'"
p49
sS'__init__'
p50
S"<method-wrapper '__init__' of exceptions.AttributeError object>"
p51
sS'__new__'
p52
S'<built-in method __new__ of type object>'
p53
ssS'evalue'
p54
S"'DAL' object has no attribute 't_sustancias'"
p55
sS'request'
p56
cgluon.html
XML_unpickle
p57
(S's\xa0U\x00\x00<div><table><tr><td style="font-weight:bold;vertical-align:top;">ajax</td><td style="vertical-align:top;">:</td><td><div>False</div></td></tr><tr><td style="font-weight:bold;vertical-align:top;">application</td><td style="vertical-align:top;">:</td><td><div>SIGULAB</div></td></tr><tr><td style="font-weight:bold;vertical-align:top;">args</td><td style="vertical-align:top;">:</td><td><div><table></table></div></td></tr><tr><td style="font-weight:bold;vertical-align:top;">cid</td><td style="vertical-align:top;">:</td><td><div>None</div></td></tr><tr><td style="font-weight:bold;vertical-align:top;">client</td><td style="vertical-align:top;">:</td><td><div>127.0.0.1</div></td></tr><tr><td style="font-weight:bold;vertical-align:top;">controller</td><td style="vertical-align:top;">:</td><td><div>default</div></td></tr><tr><td style="font-weight:bold;vertical-align:top;">cookies</td><td style="vertical-align:top;">:</td><td><div><table><tr><td style="font-weight:bold;vertical-align:top;">session_id_admin</td><td style="vertical-align:top;">:</td><td><div>127.0.0.1-eb0584ef-b6d4-4547-b804-08344a0a845e<table><tr><td style="font-weight:bold;vertical-align:top;">comment</td><td style="vertical-align:top;">:</td><td><div></div></td></tr><tr><td style="font-weight:bold;vertical-align:top;">domain</td><td style="vertical-align:top;">:</td><td><div></div></td></tr><tr><td style="font-weight:bold;vertical-align:top;">expires</td><td style="vertical-align:top;">:</td><td><div></div></td></tr><tr><td style="font-weight:bold;vertical-align:top;">httponly</td><td style="vertical-align:top;">:</td><td><div></div></td></tr><tr><td style="font-weight:bold;vertical-align:top;">max-age</td><td style="vertical-align:top;">:</td><td><div></div></td></tr><tr><td style="font-weight:bold;vertical-align:top;">path</td><td style="vertical-align:top;">:</td><td><div></div></td></tr><tr><td style="font-weight:bold;vertical-align:top;">secure</td><td style="vertical-align:top;">:</td><td><div></div></td></tr><tr><td style="font-weight:bold;vertical-align:top;">version</td><td style="vertical-align:top;">:</td><td><div></div></td></tr></table></div></td></tr><tr><td style="font-weight:bold;vertical-align:top;">session_id_sigulab</td><td style="vertical-align:top;">:</td><td><div>127.0.0.1-90705daf-d3c4-4545-a78e-311961a8c9dd<table><tr><td style="font-weight:bold;vertical-align:top;">comment</td><td style="vertical-align:top;">:</td><td><div></div></td></tr><tr><td style="font-weight:bold;vertical-align:top;">domain</td><td style="vertical-align:top;">:</td><td><div></div></td></tr><tr><td style="font-weight:bold;vertical-align:top;">expires</td><td style="vertical-align:top;">:</td><td><div></div></td></tr><tr><td style="font-weight:bold;vertical-align:top;">httponly</td><td style="vertical-align:top;">:</td><td><div></div></td></tr><tr><td style="font-weight:bold;vertical-align:top;">max-age</td><td style="vertical-align:top;">:</td><td><div></div></td></tr><tr><td style="font-weight:bold;vertical-align:top;">path</td><td style="vertical-align:top;">:</td><td><div></div></td></tr><tr><td style="font-weight:bold;vertical-align:top;">secure</td><td style="vertical-align:top;">:</td><td><div></div></td></tr><tr><td style="font-weight:bold;vertical-align:top;">version</td><td style="vertical-align:top;">:</td><td><div></div></td></tr></table></div></td></tr></table></div></td></tr><tr><td style="font-weight:bold;vertical-align:top;">env</td><td style="vertical-align:top;">:</td><td><div><table><tr><td style="font-weight:bold;vertical-align:top;">HTTP_ACCEPT</td><td style="vertical-align:top;">:</td><td><div>text/html,application/xhtml+xml,application/xml;q=0.9,image/webp,*/*;q=0.8</div></td></tr><tr><td style="font-weight:bold;vertical-align:top;">HTTP_ACCEPT_ENCODING</td><td style="vertical-align:top;">:</td><td><div>gzip, deflate, sdch, br</div></td></tr><tr><td style="font-weight:bold;vertical-align:top;">HTTP_ACCEPT_LANGUAGE</td><td style="vertical-align:top;">:</td><td><div>es,en;q=0.8</div></td></tr><tr><td style="font-weight:bold;vertical-align:top;">HTTP_CONNECTION</td><td style="vertical-align:top;">:</td><td><div>keep-alive</div></td></tr><tr><td style="font-weight:bold;vertical-align:top;">HTTP_COOKIE</td><td style="vertical-align:top;">:</td><td><div>session_id_admin=127.0.0.1-eb0584ef-b6d4-4547-b804-08344a0a845e; session_id_sigulab=127.0.0.1-90705daf-d3c4-4545-a78e-311961a8c9dd</div></td></tr><tr><td style="font-weight:bold;vertical-align:top;">HTTP_DNT</td><td style="vertical-align:top;">:</td><td><div>1</div></td></tr><tr><td style="font-weight:bold;vertical-align:top;">HTTP_HOST</td><td style="vertical-align:top;">:</td><td><div>127.0.0.1:8000</div></td></tr><tr><td style="font-weight:bold;vertical-align:top;">HTTP_REFERER</td><td style="vertical-align:top;">:</td><td><div>http://127.0.0.1:8000/front_page</div></td></tr><tr><td style="font-weight:bold;vertical-align:top;">HTTP_UPGRADE_INSECURE_REQUESTS</td><td style="vertical-align:top;">:</td><td><div>1</div></td></tr><tr><td style="font-weight:bold;vertical-align:top;">HTTP_USER_AGENT</td><td style="vertical-align:top;">:</td><td><div>Mozilla/5.0 (X11; Linux x86_64) AppleWebKit/537.36 (KHTML, like Gecko) Chrome/56.0.2924.87 Safari/537.36</div></td></tr><tr><td style="font-weight:bold;vertical-align:top;">PATH_INFO</td><td style="vertical-align:top;">:</td><td><div>/</div></td></tr><tr><td style="font-weight:bold;vertical-align:top;">QUERY_STRING</td><td style="vertical-align:top;">:</td><td><div></div></td></tr><tr><td style="font-weight:bold;vertical-align:top;">REMOTE_ADDR</td><td style="vertical-align:top;">:</td><td><div>127.0.0.1</div></td></tr><tr><td style="font-weight:bold;vertical-align:top;">REMOTE_PORT</td><td style="vertical-align:top;">:</td><td><div>48780</div></td></tr><tr><td style="font-weight:bold;vertical-align:top;">REQUEST_METHOD</td><td style="vertical-align:top;">:</td><td><div>GET</div></td></tr><tr><td style="font-weight:bold;vertical-align:top;">SCRIPT_NAME</td><td style="vertical-align:top;">:</td><td><div></div></td></tr><tr><td style="font-weight:bold;vertical-align:top;">SERVER_NAME</td><td style="vertical-align:top;">:</td><td><div>adolfo-PC</div></td></tr><tr><td style="font-weight:bold;vertical-align:top;">SERVER_PORT</td><td style="vertical-align:top;">:</td><td><div>8000</div></td></tr><tr><td style="font-weight:bold;vertical-align:top;">SERVER_PROTOCOL</td><td style="vertical-align:top;">:</td><td><div>HTTP/1.1</div></td></tr><tr><td style="font-weight:bold;vertical-align:top;">SERVER_SOFTWARE</td><td style="vertical-align:top;">:</td><td><div>Rocket 1.2.6</div></td></tr><tr><td style="font-weight:bold;vertical-align:top;">app_folders</td><td style="vertical-align:top;">:</td><td><div>set([&#x27;/home/adolfo/Desktop/PROYECTO ULAB/applications/SIGULAB/&#x27;])</div></td></tr><tr><td style="font-weight:bold;vertical-align:top;">applications_parent</td><td style="vertical-align:top;">:</td><td><div>/home/adolfo/Desktop/PROYECTO ULAB</div></td></tr><tr><td style="font-weight:bold;vertical-align:top;">cmd_args</td><td style="vertical-align:top;">:</td><td><div><table></table></div></td></tr><tr><td style="font-weight:bold;vertical-align:top;">cmd_options</td><td style="vertical-align:top;">:</td><td><div>&lt;Values at 0x7ff6e9f21680: {&#x27;verbose&#x27;: False, &#x27;ip&#x27;: &#x27;127.0.0.1&#x27;, &#x27;debuglevel&#x27;: 30, &#x27;with_scheduler&#x27;: False, &#x27;shutdown_timeout&#x27;: 5, &#x27;taskbar&#x27;: False, &#x27;with_coverage&#x27;: False, &#x27;pid_filename&#x27;: &#x27;httpserver.pid&#x27;, &#x27;maxthreads&#x27;: None, &#x27;softcron&#x27;: False, &#x27;server_name&#x27;: &#x27;adolfo-PC&#x27;, &#x27;bpython&#x27;: False, &#x27;nogui&#x27;: False, &#x27;port&#x27;: 8000, &#x27;print_errors&#x27;: False, &#x27;extcron&#x27;: False, &#x27;runcron&#x27;: False, &#x27;run_system_tests&#x27;: False, &#x27;test&#x27;: None, &#x27;folder&#x27;: &#x27;/home/adolfo/Desktop/PROYECTO ULAB&#x27;, &#x27;config&#x27;: &#x27;&#x27;, &#x27;minthreads&#x27;: None, &#x27;shell&#x27;: None, &#x27;run&#x27;: &#x27;&#x27;, &#x27;log_filename&#x27;: &#x27;httpserver.log&#x27;, &#x27;profiler_dir&#x27;: None, &#x27;args&#x27;: [&#x27;&#x27;], &#x27;socket_timeout&#x27;: 5, &#x27;ssl_ca_certificate&#x27;: None, &#x27;scheduler&#x27;: None, &#x27;interfaces&#x27;: None, &#x27;ssl_private_key&#x27;: &#x27;&#x27;, &#x27;gae&#x27;: None, &#x27;password&#x27;: &#x27;******&#x27;, &#x27;request_queue_size&#x27;: 5, &#x27;ssl_certificate&#x27;: &#x27;&#x27;, &#x27;cronjob&#x27;: False, &#x27;numthreads&#x27;: None, &#x27;quiet&#x27;: False, &#x27;import_models&#x27;: False, &#x27;timeout&#x27;: 10, &#x27;plain&#x27;: False, &#x27;nobanner&#x27;: False}&gt;</div></td></tr><tr><td style="font-weight:bold;vertical-align:top;">db_sessions</td><td style="vertical-align:top;">:</td><td><div>set([])</div></td></tr><tr><td style="font-weight:bold;vertical-align:top;">debugging</td><td style="vertical-align:top;">:</td><td><div>False</div></td></tr><tr><td style="font-weight:bold;vertical-align:top;">gluon_parent</td><td style="vertical-align:top;">:</td><td><div>/home/adolfo/Desktop/PROYECTO ULAB</div></td></tr><tr><td style="font-weight:bold;vertical-align:top;">http_accept</td><td style="vertical-align:top;">:</td><td><div>text/html,application/xhtml+xml,application/xml;q=0.9,image/webp,*/*;q=0.8</div></td></tr><tr><td style="font-weight:bold;vertical-align:top;">http_accept_encoding</td><td style="vertical-align:top;">:</td><td><div>gzip, deflate, sdch, br</div></td></tr><tr><td style="font-weight:bold;vertical-align:top;">http_accept_language</td><td style="vertical-align:top;">:</td><td><div>es,en;q=0.8</div></td></tr><tr><td style="font-weight:bold;vertical-align:top;">http_connection</td><td style="vertical-align:top;">:</td><td><div>keep-alive</div></td></tr><tr><td style="font-weight:bold;vertical-align:top;">http_cookie</td><td style="vertical-align:top;">:</td><td><div>session_id_admin=127.0.0.1-eb0584ef-b6d4-4547-b804-08344a0a845e; session_id_sigulab=127.0.0.1-90705daf-d3c4-4545-a78e-311961a8c9dd</div></td></tr><tr><td style="font-weight:bold;vertical-align:top;">http_dnt</td><td style="vertical-align:top;">:</td><td><div>1</div></td></tr><tr><td style="font-weight:bold;vertical-align:top;">http_host</td><td style="vertical-align:top;">:</td><td><div>127.0.0.1:8000</div></td></tr><tr><td style="font-weight:bold;vertical-align:top;">http_referer</td><td style="vertical-align:top;">:</td><td><div>http://127.0.0.1:8000/front_page</div></td></tr><tr><td style="font-weight:bold;vertical-align:top;">http_upgrade_insecure_requests</td><td style="vertical-align:top;">:</td><td><div>1</div></td></tr><tr><td style="font-weight:bold;vertical-align:top;">http_user_agent</td><td style="vertical-align:top;">:</td><td><div>Mozilla/5.0 (X11; Linux x86_64) AppleWebKit/537.36 (KHTML, like Gecko) Chrome/56.0.2924.87 Safari/537.36</div></td></tr><tr><td style="font-weight:bold;vertical-align:top;">is_jython</td><td style="vertical-align:top;">:</td><td><div>False</div></td></tr><tr><td style="font-weight:bold;vertical-align:top;">is_pypy</td><td style="vertical-align:top;">:</td><td><div>False</div></td></tr><tr><td style="font-weight:bold;vertical-align:top;">is_source</td><td style="vertical-align:top;">:</td><td><div>True</div></td></tr><tr><td style="font-weight:bold;vertical-align:top;">local_hosts</td><td style="vertical-align:top;">:</td><td><div><table><tr><td><div>127.0.1.1</div></td></tr><tr><td><div>::1</div></td></tr><tr><td><div>adolfo-PC</div></td></tr><tr><td><div>::ffff:127.0.0.1</div></td></tr><tr><td><div>127.0.0.1</div></td></tr></table></div></td></tr><tr><td style="font-weight:bold;vertical-align:top;">path_info</td><td style="vertical-align:top;">:</td><td><div>/</div></td></tr><tr><td style="font-weight:bold;vertical-align:top;">query_string</td><td style="vertical-align:top;">:</td><td><div></div></td></tr><tr><td style="font-weight:bold;vertical-align:top;">remote_addr</td><td style="vertical-align:top;">:</td><td><div>127.0.0.1</div></td></tr><tr><td style="font-weight:bold;vertical-align:top;">remote_port</td><td style="vertical-align:top;">:</td><td><div>48780</div></td></tr><tr><td style="font-weight:bold;vertical-align:top;">request_method</td><td style="vertical-align:top;">:</td><td><div>GET</div></td></tr><tr><td style="font-weight:bold;vertical-align:top;">request_uri</td><td style="vertical-align:top;">:</td><td><div>/SIGULAB/default/index</div></td></tr><tr><td style="font-weight:bold;vertical-align:top;">script_name</td><td style="vertical-align:top;">:</td><td><div></div></td></tr><tr><td style="font-weight:bold;vertical-align:top;">server_name</td><td style="vertical-align:top;">:</td><td><div>adolfo-PC</div></td></tr><tr><td style="font-weight:bold;vertical-align:top;">server_port</td><td style="vertical-align:top;">:</td><td><div>8000</div></td></tr><tr><td style="font-weight:bold;vertical-align:top;">server_protocol</td><td style="vertical-align:top;">:</td><td><div>HTTP/1.1</div></td></tr><tr><td style="font-weight:bold;vertical-align:top;">server_software</td><td style="vertical-align:top;">:</td><td><div>Rocket 1.2.6</div></td></tr><tr><td style="font-weight:bold;vertical-align:top;">web2py_original_uri</td><td style="vertical-align:top;">:</td><td><div>/</div></td></tr><tr><td style="font-weight:bold;vertical-align:top;">web2py_path</td><td style="vertical-align:top;">:</td><td><div>/home/adolfo/Desktop/PROYECTO ULAB</div></td></tr><tr><td style="font-weight:bold;vertical-align:top;">web2py_version</td><td style="vertical-align:top;">:</td><td><div>2.14.6-stable+timestamp.2016.05.10.00.21.47</div></td></tr><tr><td style="font-weight:bold;vertical-align:top;">wsgi.errors</td><td style="vertical-align:top;">:</td><td><div>&lt;open file &#x27;&lt;stderr&gt;&#x27;, mode &#x27;w&#x27; at 0x7ff6f4ced1e0&gt;</div></td></tr><tr><td style="font-weight:bold;vertical-align:top;">wsgi.file_wrapper</td><td style="vertical-align:top;">:</td><td><div>&lt;class wsgiref.util.FileWrapper at 0x7ff6e9fd2120&gt;</div></td></tr><tr><td style="font-weight:bold;vertical-align:top;">wsgi.input</td><td style="vertical-align:top;">:</td><td><div>&lt;socket._fileobject object at 0x7ff6f2bb87d0&gt;</div></td></tr><tr><td style="font-weight:bold;vertical-align:top;">wsgi.multiprocess</td><td style="vertical-align:top;">:</td><td><div>False</div></td></tr><tr><td style="font-weight:bold;vertical-align:top;">wsgi.multithread</td><td style="vertical-align:top;">:</td><td><div>True</div></td></tr><tr><td style="font-weight:bold;vertical-align:top;">wsgi.run_once</td><td style="vertical-align:top;">:</td><td><div>False</div></td></tr><tr><td style="font-weight:bold;vertical-align:top;">wsgi.url_scheme</td><td style="vertical-align:top;">:</td><td><div>http</div></td></tr><tr><td style="font-weight:bold;vertical-align:top;">wsgi.version</td><td style="vertical-align:top;">:</td><td><div><table><tr><td><div>1</div></td></tr><tr><td><div>0</div></td></tr></table></div></td></tr><tr><td style="font-weight:bold;vertical-align:top;">wsgi_errors</td><td style="vertical-align:top;">:</td><td><div>&lt;open file &#x27;&lt;stderr&gt;&#x27;, mode &#x27;w&#x27; at 0x7ff6f4ced1e0&gt;</div></td></tr><tr><td style="font-weight:bold;vertical-align:top;">wsgi_file_wrapper</td><td style="vertical-align:top;">:</td><td><div>&lt;class wsgiref.util.FileWrapper at 0x7ff6e9fd2120&gt;</div></td></tr><tr><td style="font-weight:bold;vertical-align:top;">wsgi_input</td><td style="vertical-align:top;">:</td><td><div>&lt;socket._fileobject object at 0x7ff6f2bb87d0&gt;</div></td></tr><tr><td style="font-weight:bold;vertical-align:top;">wsgi_multiprocess</td><td style="vertical-align:top;">:</td><td><div>False</div></td></tr><tr><td style="font-weight:bold;vertical-align:top;">wsgi_multithread</td><td style="vertical-align:top;">:</td><td><div>True</div></td></tr><tr><td style="font-weight:bold;vertical-align:top;">wsgi_run_once</td><td style="vertical-align:top;">:</td><td><div>False</div></td></tr><tr><td style="font-weight:bold;vertical-align:top;">wsgi_url_scheme</td><td style="vertical-align:top;">:</td><td><div>http</div></td></tr><tr><td style="font-weight:bold;vertical-align:top;">wsgi_version</td><td style="vertical-align:top;">:</td><td><div><table><tr><td><div>1</div></td></tr><tr><td><div>0</div></td></tr></table></div></td></tr></table></div></td></tr><tr><td style="font-weight:bold;vertical-align:top;">extension</td><td style="vertical-align:top;">:</td><td><div>html</div></td></tr><tr><td style="font-weight:bold;vertical-align:top;">folder</td><td style="vertical-align:top;">:</td><td><div>/home/adolfo/Desktop/PROYECTO ULAB/applications/SIGULAB/</div></td></tr><tr><td style="font-weight:bold;vertical-align:top;">function</td><td style="vertical-align:top;">:</td><td><div>index</div></td></tr><tr><td style="font-weight:bold;vertical-align:top;">global_settings</td><td style="vertical-align:top;">:</td><td><div><table><tr><td style="font-weight:bold;vertical-align:top;">app_folders</td><td style="vertical-align:top;">:</td><td><div>set([&#x27;/home/adolfo/Desktop/PROYECTO ULAB/applications/SIGULAB/&#x27;])</div></td></tr><tr><td style="font-weight:bold;vertical-align:top;">applications_parent</td><td style="vertical-align:top;">:</td><td><div>/home/adolfo/Desktop/PROYECTO ULAB</div></td></tr><tr><td style="font-weight:bold;vertical-align:top;">cmd_args</td><td style="vertical-align:top;">:</td><td><div><table></table></div></td></tr><tr><td style="font-weight:bold;vertical-align:top;">cmd_options</td><td style="vertical-align:top;">:</td><td><div>&lt;Values at 0x7ff6e9f21680: {&#x27;verbose&#x27;: False, &#x27;ip&#x27;: &#x27;127.0.0.1&#x27;, &#x27;debuglevel&#x27;: 30, &#x27;with_scheduler&#x27;: False, &#x27;shutdown_timeout&#x27;: 5, &#x27;taskbar&#x27;: False, &#x27;with_coverage&#x27;: False, &#x27;pid_filename&#x27;: &#x27;httpserver.pid&#x27;, &#x27;maxthreads&#x27;: None, &#x27;softcron&#x27;: False, &#x27;server_name&#x27;: &#x27;adolfo-PC&#x27;, &#x27;bpython&#x27;: False, &#x27;nogui&#x27;: False, &#x27;port&#x27;: 8000, &#x27;print_errors&#x27;: False, &#x27;extcron&#x27;: False, &#x27;runcron&#x27;: False, &#x27;run_system_tests&#x27;: False, &#x27;test&#x27;: None, &#x27;folder&#x27;: &#x27;/home/adolfo/Desktop/PROYECTO ULAB&#x27;, &#x27;config&#x27;: &#x27;&#x27;, &#x27;minthreads&#x27;: None, &#x27;shell&#x27;: None, &#x27;run&#x27;: &#x27;&#x27;, &#x27;log_filename&#x27;: &#x27;httpserver.log&#x27;, &#x27;profiler_dir&#x27;: None, &#x27;args&#x27;: [&#x27;&#x27;], &#x27;socket_timeout&#x27;: 5, &#x27;ssl_ca_certificate&#x27;: None, &#x27;scheduler&#x27;: None, &#x27;interfaces&#x27;: None, &#x27;ssl_private_key&#x27;: &#x27;&#x27;, &#x27;gae&#x27;: None, &#x27;password&#x27;: &#x27;******&#x27;, &#x27;request_queue_size&#x27;: 5, &#x27;ssl_certificate&#x27;: &#x27;&#x27;, &#x27;cronjob&#x27;: False, &#x27;numthreads&#x27;: None, &#x27;quiet&#x27;: False, &#x27;import_models&#x27;: False, &#x27;timeout&#x27;: 10, &#x27;plain&#x27;: False, &#x27;nobanner&#x27;: False}&gt;</div></td></tr><tr><td style="font-weight:bold;vertical-align:top;">db_sessions</td><td style="vertical-align:top;">:</td><td><div>set([])</div></td></tr><tr><td style="font-weight:bold;vertical-align:top;">debugging</td><td style="vertical-align:top;">:</td><td><div>False</div></td></tr><tr><td style="font-weight:bold;vertical-align:top;">gluon_parent</td><td style="vertical-align:top;">:</td><td><div>/home/adolfo/Desktop/PROYECTO ULAB</div></td></tr><tr><td style="font-weight:bold;vertical-align:top;">is_jython</td><td style="vertical-align:top;">:</td><td><div>False</div></td></tr><tr><td style="font-weight:bold;vertical-align:top;">is_pypy</td><td style="vertical-align:top;">:</td><td><div>False</div></td></tr><tr><td style="font-weight:bold;vertical-align:top;">is_source</td><td style="vertical-align:top;">:</td><td><div>True</div></td></tr><tr><td style="font-weight:bold;vertical-align:top;">local_hosts</td><td style="vertical-align:top;">:</td><td><div><table><tr><td><div>127.0.1.1</div></td></tr><tr><td><div>::1</div></td></tr><tr><td><div>adolfo-PC</div></td></tr><tr><td><div>::ffff:127.0.0.1</div></td></tr><tr><td><div>127.0.0.1</div></td></tr></table></div></td></tr><tr><td style="font-weight:bold;vertical-align:top;">web2py_version</td><td style="vertical-align:top;">:</td><td><div>2.14.6-stable+timestamp.2016.05.10.00.21.47</div></td></tr></table></div></td></tr><tr><td style="font-weight:bold;vertical-align:top;">is_https</td><td style="vertical-align:top;">:</td><td><div>False</div></td></tr><tr><td style="font-weight:bold;vertical-align:top;">is_local</td><td style="vertical-align:top;">:</td><td><div>True</div></td></tr><tr><td style="font-weight:bold;vertical-align:top;">is_restful</td><td style="vertical-align:top;">:</td><td><div>False</div></td></tr><tr><td style="font-weight:bold;vertical-align:top;">is_scheduler</td><td style="vertical-align:top;">:</td><td><div>False</div></td></tr><tr><td style="font-weight:bold;vertical-align:top;">is_shell</td><td style="vertical-align:top;">:</td><td><div>False</div></td></tr><tr><td style="font-weight:bold;vertical-align:top;">now</td><td style="vertical-align:top;">:</td><td><div>datetime.datetime(2017, 2, 13, 17, 24, 8, 851269)</div></td></tr><tr><td style="font-weight:bold;vertical-align:top;">url</td><td style="vertical-align:top;">:</td><td><div>/</div></td></tr><tr><td style="font-weight:bold;vertical-align:top;">utcnow</td><td style="vertical-align:top;">:</td><td><div>datetime.datetime(2017, 2, 13, 21, 24, 8, 851337)</div></td></tr><tr><td style="font-weight:bold;vertical-align:top;">wsgi</td><td style="vertical-align:top;">:</td><td><div>&lt;gluon.main.LazyWSGI object at 0x7ff6bd39d450&gt;</div></td></tr></table></div>'
tRp58
sS'frames'
p59
(lp60
(dp61
S'file'
p62
S'/home/adolfo/Desktop/PROYECTO ULAB/gluon/restricted.py'
p63
sS'dump'
p64
(dp65
S'environment'
p66
S"{'A': <class 'gluon.html.A'>, 'ANY_OF': <class 'gluon.validators.ANY_OF'>, 'ASSIGNJS': <function ASSIGNJS>, 'AppConfig': <function AppConfig>, 'Auth': <class 'gluon.tools.Auth'>, 'B': <class 'gluon.html.B'>, 'BEAUTIFY': <class 'gluon.html.BEAUTIFY'>, 'BODY': <class 'gluon.html.BODY'>, 'BR': <class 'gluon.html.BR'>, 'BUTTON': <class 'gluon.html.BUTTON'>, ...}"
p67
sS'ccode'
p68
S'<code object <module> at 0x7ff6bd1e4930, file "/...applications/SIGULAB/models/populate.py", line 1>'
p69
ssS'lnum'
p70
I227
sS'lines'
p71
(dp72
I224
S'            ccode = code'
p73
sI225
S'        else:'
p74
sI226
S'            ccode = compile2(code, layer)'
p75
sI227
S'        exec ccode in environment'
p76
sI228
S'    except HTTP:'
p77
sI229
S'        raise'
p78
sI230
S'    except RestrictedError:'
p79
sI231
S'        # do not encapsulate (obfuscate) the original RestrictedError'
p80
sI222
S'    try:'
p81
sI223
S'        if isinstance(code, types.CodeType):'
p82
ssS'call'
p83
S'(code="db.t_sustancias.insert(f_nombre=\'4-metilpentan-2...tado=\'1\', f_control=\'4\', f_peligrosidad=\'Nocivo\')", environment={\'A\': <class \'gluon.html.A\'>, \'ANY_OF\': <class \'gluon.validators.ANY_OF\'>, \'ASSIGNJS\': <function ASSIGNJS>, \'AppConfig\': <function AppConfig>, \'Auth\': <class \'gluon.tools.Auth\'>, \'B\': <class \'gluon.html.B\'>, \'BEAUTIFY\': <class \'gluon.html.BEAUTIFY\'>, \'BODY\': <class \'gluon.html.BODY\'>, \'BR\': <class \'gluon.html.BR\'>, \'BUTTON\': <class \'gluon.html.BUTTON\'>, ...}, layer=\'/home/adolfo/Desktop/PROYECTO ULAB/applications/SIGULAB/models/populate.py\')'
p84
sS'func'
p85
S'restricted'
p86
sa(dp87
g62
S'/home/adolfo/Desktop/PROYECTO ULAB/applications/SIGULAB/models/populate.py'
p88
sg64
(dp89
S'f_control'
p90
S'undefined'
p91
sS'f_estado'
p92
g91
sS'db'
p93
S'<DAL uri="postgres:******@localhost/sigulab2">'
p94
sS'f_nombre'
p95
g91
sS'f_pureza'
p96
g91
sS'f_cas'
p97
g91
sS'f_peligrosidad'
p98
g91
sS'db.t_sustancias'
p99
g91
ssg70
I1
sg71
(dp100
I2
S"db.t_sustancias.insert(f_nombre='Acetato de Etilo', f_cas='141-78-6', f_pureza='99', f_estado='2', f_control='1', f_peligrosidad='Inflamable')"
p101
sI3
S"db.t_sustancias.insert(f_nombre='Acetona', f_cas='67-64-1', f_pureza='99', f_estado='2', f_control='1', f_peligrosidad='Inflamable')"
p102
sI4
S"db.t_sustancias.insert(f_nombre='\xc3\x81cido Antran\xc3\xadlico', f_cas='118-92-3', f_pureza='99', f_estado='2', f_control='1', f_peligrosidad='Inflamable')"
p103
sI5
S"db.t_sustancias.insert(f_nombre='\xc3\x81cido Clorh\xc3\xaddrico', f_cas='7647-01-0', f_pureza='37', f_estado='2', f_control='1', f_peligrosidad='T\xc3\xb3xico')"
p104
sI6
S"db.t_sustancias.insert(f_nombre='\xc3\x81cido Fenilac\xc3\xa9tico y sus sales', f_cas='103-82-2', f_pureza='99', f_estado='2', f_control='1', f_peligrosidad='Comburente')"
p105
sI7
S"db.t_sustancias.insert(f_nombre='\xc3\x81cido N\xc3\xadtrico', f_cas='7697-37-2', f_pureza='5', f_estado='2', f_control='2', f_peligrosidad='T\xc3\xb3xico')"
p106
sI8
S"db.t_sustancias.insert(f_nombre='\xc3\x81cido P\xc3\xadcrico (trinitrofenol)', f_cas='88-89-1', f_pureza='3', f_estado='1', f_control='2', f_peligrosidad='Explosivo')"
p107
sI9
S"db.t_sustancias.insert(f_nombre='\xc3\x81cido Sulf\xc3\xbarico', f_cas='7664-93-9', f_pureza='97', f_estado='2', f_control='3', f_peligrosidad='Corrosivo')"
p108
sI10
S"db.t_sustancias.insert(f_nombre='Aluminio en polvo', f_cas='7429-90-5', f_pureza='99', f_estado='1', f_control='2', f_peligrosidad='Inflamable')"
p109
sI11
S"db.t_sustancias.insert(f_nombre='Amon\xc3\xadaco Anh\xc3\xaddrico', f_cas='7664-41-7', f_pureza='99', f_estado='2', f_control='1', f_peligrosidad='Nocivo')"
p110
ssg83
S'()'
p111
sg85
S'<module>'
p112
sa(dp113
g62
S'/home/adolfo/Desktop/PROYECTO ULAB/gluon/packages/dal/pydal/base.py'
p114
sg64
(dp115
S'global BasicStorage'
p116
S"<class 'pydal.helpers.classes.BasicStorage'>"
p117
sS'self'
p118
S'<DAL uri="postgres:******@localhost/sigulab2">'
p119
sS'BasicStorage.__getattribute__'
p120
S"<slot wrapper '__getattribute__' of 'object' objects>"
p121
sS'key'
p122
S"'t_sustancias'"
p123
ssg70
I921
sg71
(dp124
I916
S'    def __getattr__(self, key):'
p125
sI917
S"        if object.__getattribute__(self, '_lazy_tables') and \\"
p126
sI918
S"                key in object.__getattribute__(self, '_LAZY_TABLES'):"
p127
sI919
S'            tablename, fields, args = self._LAZY_TABLES.pop(key)'
p128
sI920
S'            return self.lazy_define_table(tablename, *fields, **args)'
p129
sI921
S'        return BasicStorage.__getattribute__(self, key)'
p130
sI922
S''
sI923
S'    def __setattr__(self, key, value):'
p131
sI924
S"        if key[:1] != '_' and key in self:"
p132
sI925
S'            raise SyntaxError('
p133
ssg83
S'(self=<DAL uri="postgres:******@localhost/sigulab2">, key=\'t_sustancias\')'
p134
sg85
S'__getattr__'
p135
sasS'pyver'
p136
S'Python 2.7.12: /usr/bin/python (prefix: /usr)'
p137
sS'session'
p138
g57
(S's\xfb\t\x00\x00<div><table><tr><td style="font-weight:bold;vertical-align:top;">auth</td><td style="vertical-align:top;">:</td><td><div><table><tr><td style="font-weight:bold;vertical-align:top;">expiration</td><td style="vertical-align:top;">:</td><td><div>3600</div></td></tr><tr><td style="font-weight:bold;vertical-align:top;">hmac_key</td><td style="vertical-align:top;">:</td><td><div>9d352aeb-f308-4f3c-bdeb-a498650c1e0d</div></td></tr><tr><td style="font-weight:bold;vertical-align:top;">last_visit</td><td style="vertical-align:top;">:</td><td><div>datetime.datetime(2017, 2, 13, 17, 20, 26, 523533)</div></td></tr><tr><td style="font-weight:bold;vertical-align:top;">remember_me</td><td style="vertical-align:top;">:</td><td><div>False</div></td></tr><tr><td style="font-weight:bold;vertical-align:top;">user</td><td style="vertical-align:top;">:</td><td><div><table><tr><td style="font-weight:bold;vertical-align:top;">autorizado</td><td style="vertical-align:top;">:</td><td><div>False</div></td></tr><tr><td style="font-weight:bold;vertical-align:top;">cargo</td><td style="vertical-align:top;">:</td><td><div>None</div></td></tr><tr><td style="font-weight:bold;vertical-align:top;">email</td><td style="vertical-align:top;">:</td><td><div>webmaster@sigulab.com</div></td></tr><tr><td style="font-weight:bold;vertical-align:top;">first_name</td><td style="vertical-align:top;">:</td><td><div>Super</div></td></tr><tr><td style="font-weight:bold;vertical-align:top;">id</td><td style="vertical-align:top;">:</td><td><div>1L</div></td></tr><tr><td style="font-weight:bold;vertical-align:top;">last_name</td><td style="vertical-align:top;">:</td><td><div>Usuario</div></td></tr><tr><td style="font-weight:bold;vertical-align:top;">registration_id</td><td style="vertical-align:top;">:</td><td><div></div></td></tr><tr><td style="font-weight:bold;vertical-align:top;">registration_key</td><td style="vertical-align:top;">:</td><td><div></div></td></tr><tr><td style="font-weight:bold;vertical-align:top;">reset_password_key</td><td style="vertical-align:top;">:</td><td><div></div></td></tr></table></div></td></tr><tr><td style="font-weight:bold;vertical-align:top;">user_groups</td><td style="vertical-align:top;">:</td><td><div><table><tr><td style="font-weight:bold;vertical-align:top;">1</td><td style="vertical-align:top;">:</td><td><div>WebMaster</div></td></tr></table></div></td></tr></table></div></td></tr><tr><td style="font-weight:bold;vertical-align:top;">flash</td><td style="vertical-align:top;">:</td><td><div>None</div></td></tr></table></div>'
tRp139
sS'etype'
p140
S"<type 'exceptions.AttributeError'>"
p141
sS'date'
p142
S'Mon Feb 13 17:24:08 2017'
p143
sS'response'
p144
g57
(S's\x87&\x00\x00<div><table><tr><td style="font-weight:bold;vertical-align:top;">body</td><td style="vertical-align:top;">:</td><td><div>&lt;cStringIO.StringO object at 0x7ff6bd3065e0&gt;</div></td></tr><tr><td style="font-weight:bold;vertical-align:top;">cookies</td><td style="vertical-align:top;">:</td><td><div><table><tr><td style="font-weight:bold;vertical-align:top;">session_id_sigulab</td><td style="vertical-align:top;">:</td><td><div>127.0.0.1-90705daf-d3c4-4545-a78e-311961a8c9dd<table><tr><td style="font-weight:bold;vertical-align:top;">comment</td><td style="vertical-align:top;">:</td><td><div></div></td></tr><tr><td style="font-weight:bold;vertical-align:top;">domain</td><td style="vertical-align:top;">:</td><td><div></div></td></tr><tr><td style="font-weight:bold;vertical-align:top;">expires</td><td style="vertical-align:top;">:</td><td><div></div></td></tr><tr><td style="font-weight:bold;vertical-align:top;">httponly</td><td style="vertical-align:top;">:</td><td><div></div></td></tr><tr><td style="font-weight:bold;vertical-align:top;">max-age</td><td style="vertical-align:top;">:</td><td><div></div></td></tr><tr><td style="font-weight:bold;vertical-align:top;">path</td><td style="vertical-align:top;">:</td><td><div>/</div></td></tr><tr><td style="font-weight:bold;vertical-align:top;">secure</td><td style="vertical-align:top;">:</td><td><div></div></td></tr><tr><td style="font-weight:bold;vertical-align:top;">version</td><td style="vertical-align:top;">:</td><td><div></div></td></tr></table></div></td></tr></table></div></td></tr><tr><td style="font-weight:bold;vertical-align:top;">delimiters</td><td style="vertical-align:top;">:</td><td><div><table><tr><td><div>{{</div></td></tr><tr><td><div>}}</div></td></tr></table></div></td></tr><tr><td style="font-weight:bold;vertical-align:top;">files</td><td style="vertical-align:top;">:</td><td><div><table></table></div></td></tr><tr><td style="font-weight:bold;vertical-align:top;">flash</td><td style="vertical-align:top;">:</td><td><div></div></td></tr><tr><td style="font-weight:bold;vertical-align:top;">form_label_separator</td><td style="vertical-align:top;">:</td><td><div></div></td></tr><tr><td style="font-weight:bold;vertical-align:top;">formstyle</td><td style="vertical-align:top;">:</td><td><div>bootstrap3_inline</div></td></tr><tr><td style="font-weight:bold;vertical-align:top;">generic_patterns</td><td style="vertical-align:top;">:</td><td><div><table><tr><td><div>*</div></td></tr></table></div></td></tr><tr><td style="font-weight:bold;vertical-align:top;">headers</td><td style="vertical-align:top;">:</td><td><div><table><tr><td style="font-weight:bold;vertical-align:top;">X-Powered-By</td><td style="vertical-align:top;">:</td><td><div>web2py</div></td></tr></table></div></td></tr><tr><td style="font-weight:bold;vertical-align:top;">menu</td><td style="vertical-align:top;">:</td><td><div><table><tr><td><div><table><tr><td><div>Inicio</div></td></tr><tr><td><div>True</div></td></tr><tr><td><div>/</div></td></tr><tr><td><div><table></table></div></td></tr></table></div></td></tr><tr><td><div><table><tr><td><div>SMyDP</div></td></tr><tr><td><div>False</div></td></tr><tr><td><div>None</div></td></tr><tr><td><div><table><tr><td><div><table><tr><td><div>Inventario</div></td></tr><tr><td><div>/sustancias/select_inventario</div></td></tr><tr><td><div>/sustancias/select_inventario</div></td></tr></table></div></td></tr><tr><td><div><table><tr><td><div>Listado de Sustancias</div></td></tr><tr><td><div>/sustancias/sustanciapeligrosa_manage</div></td></tr><tr><td><div>/sustancias/sustanciapeligrosa_manage</div></td></tr></table></div></td></tr></table></div></td></tr></table></div></td></tr><tr><td><div><table><tr><td><div>Solicitudes</div></td></tr><tr><td><div>False</div></td></tr><tr><td><div>None</div></td></tr><tr><td><div><table><tr><td><div><table><tr><td><div>Entrada</div></td></tr><tr><td><div>/s_entrada/entrada</div></td></tr><tr><td><div>/s_entrada/entrada</div></td></tr></table></div></td></tr><tr><td><div><table><tr><td><div>Salida</div></td></tr><tr><td><div>/s_entrada/salida</div></td></tr><tr><td><div>/s_entrada/salida</div></td></tr></table></div></td></tr></table></div></td></tr></table></div></td></tr><tr><td><div><table><tr><td><div>Prestamos</div></td></tr><tr><td><div>False</div></td></tr><tr><td><div>None</div></td></tr><tr><td><div><table><tr><td><div><table><tr><td><div>Por devolver</div></td></tr><tr><td><div>/s_entrada/p_por_devolver</div></td></tr><tr><td><div>/s_entrada/p_por_devolver</div></td></tr></table></div></td></tr><tr><td><div><table><tr><td><div>Por recibir</div></td></tr><tr><td><div>/s_entrada/p_por_recibir</div></td></tr><tr><td><div>/s_entrada/p_por_recibir</div></td></tr></table></div></td></tr></table></div></td></tr></table></div></td></tr><tr><td><div><table><tr><td><div>Gesti\xc3\xb3n</div></td></tr><tr><td><div>False</div></td></tr><tr><td><div>None</div></td></tr><tr><td><div><table><tr><td><div><table><tr><td><div>Usuarios Registrados</div></td></tr><tr><td><div>False</div></td></tr><tr><td><div>/gestion/usuarios</div></td></tr></table></div></td></tr><tr><td><div><table><tr><td><div>Lista de Autorizados</div></td></tr><tr><td><div>False</div></td></tr><tr><td><div>/gestion/autorizados</div></td></tr></table></div></td></tr><tr><td><div><table><tr><td><div>Pendientes de confirmaci\xc3\xb3n (0)</div></td></tr><tr><td><div>False</div></td></tr><tr><td><div>/gestion/pendientes</div></td></tr></table></div></td></tr><tr><td><div><table><tr><td><div>Privilegios</div></td></tr><tr><td><div>False</div></td></tr><tr><td><div>/gestion/privilegios</div></td></tr></table></div></td></tr><tr><td><div><table><tr><td><div>Membresia</div></td></tr><tr><td><div>False</div></td></tr><tr><td><div>/gestion/membresia</div></td></tr></table></div></td></tr></table></div></td></tr></table></div></td></tr><tr><td><div><table><tr><td><div>Editar</div></td></tr><tr><td><div>False</div></td></tr><tr><td><div>/admin/design/SIGULAB</div></td></tr></table></div></td></tr></table></div></td></tr><tr><td style="font-weight:bold;vertical-align:top;">meta</td><td style="vertical-align:top;">:</td><td><div><table><tr><td style="font-weight:bold;vertical-align:top;">author</td><td style="vertical-align:top;">:</td><td><div>Lambda &lt;you@example.com&gt;</div></td></tr><tr><td style="font-weight:bold;vertical-align:top;">description</td><td style="vertical-align:top;">:</td><td><div></div></td></tr><tr><td style="font-weight:bold;vertical-align:top;">keywords</td><td style="vertical-align:top;">:</td><td><div></div></td></tr></table></div></td></tr><tr><td style="font-weight:bold;vertical-align:top;">models_to_run</td><td style="vertical-align:top;">:</td><td><div><table><tr><td><div>^\\w+\\.py$</div></td></tr><tr><td><div>^default/\\w+\\.py$</div></td></tr><tr><td><div>^default/index/\\w+\\.py$</div></td></tr></table></div></td></tr><tr><td style="font-weight:bold;vertical-align:top;">postprocessing</td><td style="vertical-align:top;">:</td><td><div><table></table></div></td></tr><tr><td style="font-weight:bold;vertical-align:top;">session_client</td><td style="vertical-align:top;">:</td><td><div>127.0.0.1</div></td></tr><tr><td style="font-weight:bold;vertical-align:top;">session_cookie_compression_level</td><td style="vertical-align:top;">:</td><td><div>None</div></td></tr><tr><td style="font-weight:bold;vertical-align:top;">session_cookie_expires</td><td style="vertical-align:top;">:</td><td><div>None</div></td></tr><tr><td style="font-weight:bold;vertical-align:top;">session_data_name</td><td style="vertical-align:top;">:</td><td><div>session_data_sigulab</div></td></tr><tr><td style="font-weight:bold;vertical-align:top;">session_file</td><td style="vertical-align:top;">:</td><td><div>&lt;open file &#x27;/home/adolfo/Desktop/PROYECTO ULAB/applications/SIGULAB/sessions/010/119/127.0.0.1-90705daf-d3c4-4545-a78e-311961a8c9dd&#x27;, mode &#x27;rb+&#x27; at 0x7ff6f2c32930&gt;</div></td></tr><tr><td style="font-weight:bold;vertical-align:top;">session_filename</td><td style="vertical-align:top;">:</td><td><div>/home/adolfo/Desktop/PROYECTO ULAB/applications/SIGULAB/sessions/127.0.0.1-90705daf-d3c4-4545-a78e-311961a8c9dd</div></td></tr><tr><td style="font-weight:bold;vertical-align:top;">session_hash</td><td style="vertical-align:top;">:</td><td><div>8b364421513e9f83d282700f0c89a503</div></td></tr><tr><td style="font-weight:bold;vertical-align:top;">session_id</td><td style="vertical-align:top;">:</td><td><div>127.0.0.1-90705daf-d3c4-4545-a78e-311961a8c9dd</div></td></tr><tr><td style="font-weight:bold;vertical-align:top;">session_id_name</td><td style="vertical-align:top;">:</td><td><div>session_id_sigulab</div></td></tr><tr><td style="font-weight:bold;vertical-align:top;">session_locked</td><td style="vertical-align:top;">:</td><td><div>True</div></td></tr><tr><td style="font-weight:bold;vertical-align:top;">session_masterapp</td><td style="vertical-align:top;">:</td><td><div>SIGULAB</div></td></tr><tr><td style="font-weight:bold;vertical-align:top;">session_new</td><td style="vertical-align:top;">:</td><td><div>False</div></td></tr><tr><td style="font-weight:bold;vertical-align:top;">session_storage_type</td><td style="vertical-align:top;">:</td><td><div>file</div></td></tr><tr><td style="font-weight:bold;vertical-align:top;">status</td><td style="vertical-align:top;">:</td><td><div>200</div></td></tr><tr><td style="font-weight:bold;vertical-align:top;">subtitle</td><td style="vertical-align:top;">:</td><td><div>Equipo</div></td></tr><tr><td style="font-weight:bold;vertical-align:top;">title</td><td style="vertical-align:top;">:</td><td><div>Sistema De Gesti\xc3\xb3n ULAB - USB</div></td></tr><tr><td style="font-weight:bold;vertical-align:top;">view</td><td style="vertical-align:top;">:</td><td><div>default/index.html</div></td></tr></table></div>'
tRp145
sS'locals'
p146
(dp147
S'self'
p148
S'<DAL uri="postgres:******@localhost/sigulab2">'
p149
sS'key'
p150
S"'t_sustancias'"
p151
sssS'traceback'
p152
S'Traceback (most recent call last):\n  File "/home/adolfo/Desktop/PROYECTO ULAB/gluon/restricted.py", line 227, in restricted\n    exec ccode in environment\n  File "/home/adolfo/Desktop/PROYECTO ULAB/applications/SIGULAB/models/populate.py", line 1, in <module>\n    db.t_sustancias.insert(f_nombre=\'4-metilpentan-2-ona (Metilisobutilcetona)\', f_cas=\'108-10-1\', f_pureza=\'99\', f_estado=\'2\', f_control=\'1\', f_peligrosidad=\'Inflamable\')\n  File "/home/adolfo/Desktop/PROYECTO ULAB/gluon/packages/dal/pydal/base.py", line 921, in __getattr__\n    return BasicStorage.__getattribute__(self, key)\nAttributeError: \'DAL\' object has no attribute \'t_sustancias\'\n'
p153
s.