(dp1
S'output'
p2
S"<type 'exceptions.NameError'> name 'db' is not defined"
p3
sS'layer'
p4
S'/home/adolfo/Desktop/PROYECTO ULAB/applications/SIGULAB/models/a_tablas_base.py'
p5
sS'code'
p6
S'### we prepend t_ to tablenames and f_ to fieldnames for disambiguity\n\nif db(db.auth_group).isempty():\n    db.auth_group.insert(role=\'Director\',description=\'Director de la Unidad de Laboratorio\')\n    db.auth_group.insert(role=\'Administrador Personal\',description=\'Administrador de Personal\')\n    db.auth_group.insert(role=\'Gestor de Sustancias\',description=\'Gestor de Sustancias\')\n    db.auth_group.insert(role=\'Jefe de Laboratorio\',description=\'Jefe de Laboratorio\')\n    db.auth_group.insert(role=\'Jefe de Secci\xc3\xb3n\',description=\'Jefe de Secci\xc3\xb3n\')\n    db.auth_group.insert(role=\'T\xc3\xa9cnico\',description=\'T\xc3\xa9cnico de Laboratorio\')\n\n\nif db(db.auth_permission).isempty():\n    db.auth_permission.insert(name=\'director\',table_name=\'t_sustancias\',\n                            group_id=(db(db.auth_group.role == "Director").select(db.auth_group.id).first()))\n    db.auth_permission.insert(name=\'gestor\',table_name=\'t_sustancias\',\n                            group_id=db(db.auth_group.role == "Gestor de Sustancias").select(db.auth_group.id).first())\n    db.auth_permission.insert(name=\'tecnico\',table_name=\'t_inventario\',\n                            group_id=db(db.auth_group.role == "T\xc3\xa9cnico").select(db.auth_group.id).first())\n    db.auth_permission.insert(name=\'jefeseccion\',table_name=\'t_inventario\',\n                            group_id=db(db.auth_group.role == "Jefe de Secci\xc3\xb3n").select(db.auth_group.id).first())\n    db.auth_permission.insert(name=\'jefelab\',table_name=\'t_inventario\',\n                            group_id=db(db.auth_group.role == "Jefe de Laboratorio").select(db.auth_group.id).first())\n\n########################################\ndb.define_table(\'t_regimenes\',\n    Field(\'f_nombre\',\'string\',label=T(\'Nombre\')),\n    format = \'%(f_nombre)s\')\n\nif db(db.t_regimenes).isempty():\n    db.t_regimenes.insert(f_nombre=\'RL4\')\n    db.t_regimenes.insert(f_nombre=\'RL7\')\n    db.t_regimenes.insert(f_nombre=\'RL4 y RL7\')\n    db.t_regimenes.insert(f_nombre=\'N/A\')\n##########################################\ndb.define_table(\'t_ingresos\',\n    Field(\'f_nombre\',label=T(\'Nombre\')),\n    format=\'%(f_nombre)s\'\n)\nif db(db.t_ingresos).isempty():\n    db.t_ingresos.insert(f_nombre=\'Suministro de Almac\xc3\xa9n\')\n    db.t_ingresos.insert(f_nombre=\'Compra a Proveedor\')\n    db.t_ingresos.insert(f_nombre=\'Pr\xc3\xa9stamo\')\n    db.t_ingresos.insert(f_nombre=\'Donaci\xc3\xb3n\')\n##########################################\ndb.define_table(\'t_consumos\',\n    Field(\'f_nombre\',label=T(\'Nombre\')),\n    format=\'%(f_nombre)s\'\n)\nif db(db.t_consumos).isempty():\n    db.t_consumos.insert(f_nombre=\'Pr\xc3\xa1ctica de Laboratorio\')\n    db.t_consumos.insert(f_nombre=\'Tesis\')\n    db.t_consumos.insert(f_nombre=\'Proyecto de Investigaci\xc3\xb3n\')\n    db.t_consumos.insert(f_nombre=\'Servicio de Laboratorio\')\n#    Field(\'f_permiso\',\'string\',label=T(\'Permiso\')),\n#    format=\'%(f_nombreCar)s\',\n#    migrate=settings.migrate)\n\n#db.define_table(\'t_cargo_archive\',db.t_cargo,Field(\'current_record\',\'reference t_cargo\',readable=False,writable=False))\n########################################\n\n\ndb.define_table(\'t_materiales\',\n               Field(\'f_nombre\',\'string\',requires=IS_NOT_EMPTY()),\n               Field(\'f_cas\',\'string\',requires=IS_NOT_EMPTY()),\n               format=\'%(f_nombre)s\')\ndb.t_materiales.f_cas.requires=IS_NOT_IN_DB(db,db.t_materiales.f_cas)\ndb.t_materiales.f_nombre.requires=IS_NOT_IN_DB(db,db.t_materiales.f_nombre)\n\n########################################\ndb.define_table(\'t_estado\',\n               Field(\'f_estado\',\'string\',readable=False,writable=False),\n               format=\'%(f_estado)s\')\n\nif db(db.t_estado).isempty():\n    db.t_estado.insert(f_estado=\'S\xc3\xb3lido\')\n    db.t_estado.insert(f_estado=\'L\xc3\xadquido\')\n    db.t_estado.insert(f_estado=\'Gaseoso\')\n\n########################################\n\ndb.define_table(\'t_sustancias\',\n    Field(\'f_nombre\', \'string\', label=T(\'Nombre\')),\n    Field(\'f_cas\', \'string\', label=T(\'Cas\')),\n    Field(\'f_pureza\', \'integer\',requires=IS_INT_IN_RANGE(0, 101), label=T(\'Pureza\')),\n    Field(\'f_estado\', \'integer\', requires=IS_IN_DB(db,db.t_estado.id,\'%(f_estado)s\'), label=T(\'Estado\'),\n    represent = lambda value,row: str(db(db.t_estado.id == value).select(db.t_estado.f_estado))[18:] ),\n    Field(\'f_control\', \'integer\', label=T(\'Control\'), requires=IS_IN_DB(db,db.t_regimenes.id,\'%(f_nombre)s\'),\n    represent = lambda value,row: str(db(db.t_regimenes.id == value).select(db.t_regimenes.f_nombre))[21:] ),\n    Field(\'f_peligrosidad\', \'string\', label=T(\'Peligrosidad\')),\n    format=\'%(f_nombre)s\',\n    migrate=settings.migrate)\ndb.t_sustancias.id.readable=False\ndb.t_sustancias.id.writable=False\ndb.define_table(\'t_sustancias_archive\',db.t_sustancias,Field(\'current_record\',\'reference t_sustancias\',readable=False,writable=False))\n\n\n\n\n##########################################\ndb.define_table(\'t_laboratorio\',\n    Field(\'f_nombre\', \'string\', notnull=True, label=T(\'Nombre\')),\n    Field(\'f_jefe\',\'integer\', requires=IS_IN_DB(db,db.auth_user.id,\'%(first_name)s %(last_name)s\'), label=T(\'Jefe de Laboratorio\')),\n    format=\'%(f_nombre)s\',\n    migrate=settings.migrate)\n\ndb.define_table(\'t_laboratorio_archive\',db.t_laboratorio,Field(\'current_record\',\'reference t_laboratorio\',readable=False,writable=False))\n\n########################################\ndb.define_table(\'t_seccion\',\n    Field(\'f_seccion\',\'string\',requires=IS_NOT_EMPTY(),label=T(\'Secci\xc3\xb3n\')),\n    Field(\'f_laboratorio\',\'string\',requires=IS_IN_DB(db,db.t_laboratorio.f_nombre,\'%(f_nombre)s\'), label=T(\'Laboratorio\')),\n    Field(\'f_jefe\',\'integer\', requires=IS_IN_DB(db,db.auth_user.id,\'%(first_name)s %(last_name)s\'), label=T(\'Jefe de Seccion\')),\n    format=\'%(f_nombre)s\'\n    )\n\n########################################\ndb.define_table(\'t_espaciofisico\',\n    Field(\'f_espacio\', \'string\', requires=IS_NOT_EMPTY(), label=T(\'Espacio\')),\n    Field(\'f_direccion\', \'string\', requires=IS_NOT_EMPTY(), label=T(\'Direccion\')),\n    Field(\'f_seccion\', \'integer\',requires=IS_IN_DB(db,db.t_seccion.id,\'%(f_laboratorio)s, seccion %(f_seccion)s\'), label=T(\'Seccion\')),\n    Field(\'f_tecnico\',\'integer\', requires=IS_IN_DB(db,db.auth_user.id,\'%(first_name)s %(last_name)s\'), label=T(\'Tecnico\')),\n    format=\'%(f_espacio)s\',\n    migrate=settings.migrate)\ndb.t_espaciofisico.id.represent= lambda value,row: str(row.f_espacio)[27:]\n\n########################################\ndb.define_table(\'t_inventario\',\n    Field(\'f_sustancia\', \'integer\', label=T(\'Sustancia\'),requires=IS_IN_DB(db,db.t_sustancias.id,\'%(f_nombre)s\')\\\n    ,represent= lambda name,row: \\\n                A(str(db(db.t_sustancias.id==name).select(db.t_sustancias.f_nombre))[22:],_href=URL(\'sustancias\',\'view_bitacora\',vars=dict(sust=row.f_sustancia,esp=row.f_espaciofisico)))),\n    Field(\'f_espaciofisico\', \'integer\',readable=False,writable=False ,requires=IS_IN_DB(db,db.t_espaciofisico.id,\'%(f_espacio)s\') ,\n    represent= lambda value,row: str(db(db.t_espaciofisico.id == value).select(db.t_espaciofisico.f_espacio))[27:],\n    label=T(\'Espaciofisico\')),\n    Field(\'f_cantidadonacion\', \'float\',default=0,label=T(\'Cantidad Donacion\'),requires=IS_FLOAT_IN_RANGE(0,1e1000)),\n    Field(\'f_cantidadusointerno\', \'float\',default=0,label=T(\'Cantidad Uso Interno\'),requires=IS_FLOAT_IN_RANGE(0,1e1000)),\n    Field(\'f_total\',\'float\',label=T(\'Cantidad Total\'),writable=False,compute=lambda r:r.f_cantidadonacion+r.f_cantidadusointerno,requires=IS_FLOAT_IN_RANGE(0,1e1000)),\n    Field(\'f_seccion\',\'integer\',readable=False,writable=False,requires=IS_IN_DB(db,db.t_seccion.id,\'%(f_seccion)s\'),label=T(\'Secci\xc3\xb3n\'),\n    compute = lambda r: long(str(db(db.t_espaciofisico.id == r.f_espaciofisico).select(db.t_espaciofisico.f_seccion))[26:]) ),\n    Field(\'f_laboratorio\',\'string\',requires=IS_IN_DB(db,db.t_laboratorio.id,\'%(f_nombre)s\'),readable=False,writable=False,\n    compute = lambda r: str( db((db.t_seccion.id == r.f_seccion)).select(db.t_seccion.f_laboratorio) )[25:-2] ),\n    format=\'%(f_sustancia)s\',\n    migrate=settings.migrate)\n\ndb.define_table(\'t_inventario_archive\',db.t_inventario,Field(\'current_record\',\'reference t_inventario\',readable=False,writable=False))\ndb.t_inventario.id.readable = False\n\n########################################\ndb.define_table(\'t_bitacora\',\n    Field(\'f_fechaingreso\',\'datetime\',label=T(\'Fecha\')),\n    Field(\'f_sustancia\', \'integer\',readable=False,writable=False,requires=IS_IN_DB(db,db.t_sustancias.id,\'%(f_nombre)s\'),\n            represent=lambda f_sustancia,row: str(db(db.t_sustancias.id == f_sustancia).select(db.t_sustancias.f_nombre))[22:],\n            notnull=True, label=T(\'Sustancia\')),\n    Field(\'f_proceso\', \'string\', notnull=True, label=T(\'Proceso\')),\n    Field(\'f_ingreso\', \'float\', default=0, label=T(\'Ingreso\'),requires=IS_FLOAT_IN_RANGE(0,1e1000)),\n    Field(\'f_consumo\', \'float\', default=0,label=T(\'Consumo\'),requires=IS_FLOAT_IN_RANGE(0,1e1000)),\n    Field(\'f_cantidad\', \'float\', label=T(\'Cantidad\'),requires=IS_FLOAT_IN_RANGE(0,1e1000),writable=False,default=0,compute=lambda r:\n    r.f_ingreso-r.f_consumo+float ( str ( db( (db.t_inventario.f_sustancia == r.f_sustancia) & (db.t_inventario.f_espaciofisico == r.f_espaciofisico) ).select(db.t_inventario.f_cantidadusointerno) )[33:]) ),\n    Field(\'f_fecha\', \'datetime\', label=T(\'FechaIngreso\'),writable=False,readable=False, default=request.now),\n    Field(\'f_espaciofisico\', \'integer\',readable=False, requires=IS_IN_DB(db,db.t_espaciofisico.id,\'%(f_espacio)s\') ,\n    writable=False, represent= lambda value,row: str(db(db.t_espaciofisico.id == value).select(db.t_espaciofisico.f_espacio))[26:],\n     label=T(\'Espacio Fisico\'),notnull=True),\n    Field(\'f_descripcion\',\'text\',label=T(\'Descripci\xc3\xb3n\'),readable=False),\n    format=\'%(f_sustancia)s\',\n    migrate=settings.migrate)\ndb.t_bitacora.id.readable = False\n\ndb.define_table(\'t_bitacora_archive\',db.t_bitacora,Field(\'current_record\',\'reference t_bitacora\',readable=False,writable=False))\n\n\n########################################\ndb.define_table(\'t_solicitud\',\n    Field(\'f_sustancia\', \'string\', label=T(\'Sustancia\')),\n    Field(\'f_espaciofisico\', \'string\', label=T(\'Espaciofisico\')),\n    Field(\'f_seccion\', \'string\', label=T(\'Seccion\')),\n    Field(\'f_responsable\', \'string\', label=T(\'Responsable\')),\n    Field(\'f_solicitador\', \'string\', label=T(\'Solicitador\')),\n    Field(\'f_cantidadsolicitada\', \'string\', label=T(\'Cantidadsolicitada\')),\n    Field(\'f_estado\', \'string\', label=T(\'Estado\')),\n    format=\'%(f_sustancia)s\',\n    migrate=settings.migrate)\n\ndb.define_table(\'t_solicitud_archive\',db.t_solicitud,Field(\'current_record\',\'reference t_solicitud\',readable=False,writable=False))\n'
p7
sS'snapshot'
p8
(dp9
S'exception'
p10
(dp11
S'__hash__'
p12
S"<method-wrapper '__hash__' of exceptions.NameError object>"
p13
sS'__setattr__'
p14
S"<method-wrapper '__setattr__' of exceptions.NameError object>"
p15
sS'__reduce_ex__'
p16
S'<built-in method __reduce_ex__ of exceptions.NameError object>'
p17
sS'__getslice__'
p18
S"<method-wrapper '__getslice__' of exceptions.NameError object>"
p19
sS'__getitem__'
p20
S"<method-wrapper '__getitem__' of exceptions.NameError object>"
p21
sS'__setstate__'
p22
S'<built-in method __setstate__ of exceptions.NameError object>'
p23
sS'args'
p24
S'("name \'db\' is not defined",)'
p25
sS'__reduce__'
p26
S'<built-in method __reduce__ of exceptions.NameError object>'
p27
sS'__str__'
p28
S"<method-wrapper '__str__' of exceptions.NameError object>"
p29
sS'__format__'
p30
S'<built-in method __format__ of exceptions.NameError object>'
p31
sS'__getattribute__'
p32
S"<method-wrapper '__getattribute__' of exceptions.NameError object>"
p33
sS'__class__'
p34
S"<type 'exceptions.NameError'>"
p35
sS'__unicode__'
p36
S'<built-in method __unicode__ of exceptions.NameError object>'
p37
sS'__delattr__'
p38
S"<method-wrapper '__delattr__' of exceptions.NameError object>"
p39
sS'__subclasshook__'
p40
S'<built-in method __subclasshook__ of type object>'
p41
sS'__repr__'
p42
S"<method-wrapper '__repr__' of exceptions.NameError object>"
p43
sS'__dict__'
p44
S'{}'
p45
sS'__sizeof__'
p46
S'<built-in method __sizeof__ of exceptions.NameError object>'
p47
sS'__doc__'
p48
S"'Name not found globally.'"
p49
sS'__init__'
p50
S"<method-wrapper '__init__' of exceptions.NameError object>"
p51
sS'__new__'
p52
S'<built-in method __new__ of type object>'
p53
ssS'evalue'
p54
S"name 'db' is not defined"
p55
sS'request'
p56
cgluon.html
XML_unpickle
p57
(S'stG\x00\x00<div><table><tr><td style="font-weight:bold;vertical-align:top;">ajax</td><td style="vertical-align:top;">:</td><td><div>False</div></td></tr><tr><td style="font-weight:bold;vertical-align:top;">application</td><td style="vertical-align:top;">:</td><td><div>SIGULAB</div></td></tr><tr><td style="font-weight:bold;vertical-align:top;">args</td><td style="vertical-align:top;">:</td><td><div><table></table></div></td></tr><tr><td style="font-weight:bold;vertical-align:top;">cid</td><td style="vertical-align:top;">:</td><td><div>None</div></td></tr><tr><td style="font-weight:bold;vertical-align:top;">client</td><td style="vertical-align:top;">:</td><td><div>127.0.0.1</div></td></tr><tr><td style="font-weight:bold;vertical-align:top;">controller</td><td style="vertical-align:top;">:</td><td><div>default</div></td></tr><tr><td style="font-weight:bold;vertical-align:top;">cookies</td><td style="vertical-align:top;">:</td><td><div><table></table></div></td></tr><tr><td style="font-weight:bold;vertical-align:top;">env</td><td style="vertical-align:top;">:</td><td><div><table><tr><td style="font-weight:bold;vertical-align:top;">HTTP_ACCEPT</td><td style="vertical-align:top;">:</td><td><div>text/html,application/xhtml+xml,application/xml;q=0.9,image/webp,*/*;q=0.8</div></td></tr><tr><td style="font-weight:bold;vertical-align:top;">HTTP_ACCEPT_ENCODING</td><td style="vertical-align:top;">:</td><td><div>gzip, deflate, sdch, br</div></td></tr><tr><td style="font-weight:bold;vertical-align:top;">HTTP_ACCEPT_LANGUAGE</td><td style="vertical-align:top;">:</td><td><div>es,en;q=0.8</div></td></tr><tr><td style="font-weight:bold;vertical-align:top;">HTTP_CONNECTION</td><td style="vertical-align:top;">:</td><td><div>keep-alive</div></td></tr><tr><td style="font-weight:bold;vertical-align:top;">HTTP_DNT</td><td style="vertical-align:top;">:</td><td><div>1</div></td></tr><tr><td style="font-weight:bold;vertical-align:top;">HTTP_HOST</td><td style="vertical-align:top;">:</td><td><div>127.0.0.1:8000</div></td></tr><tr><td style="font-weight:bold;vertical-align:top;">HTTP_UPGRADE_INSECURE_REQUESTS</td><td style="vertical-align:top;">:</td><td><div>1</div></td></tr><tr><td style="font-weight:bold;vertical-align:top;">HTTP_USER_AGENT</td><td style="vertical-align:top;">:</td><td><div>Mozilla/5.0 (X11; Linux x86_64) AppleWebKit/537.36 (KHTML, like Gecko) Chrome/56.0.2924.87 Safari/537.36</div></td></tr><tr><td style="font-weight:bold;vertical-align:top;">PATH_INFO</td><td style="vertical-align:top;">:</td><td><div>/</div></td></tr><tr><td style="font-weight:bold;vertical-align:top;">QUERY_STRING</td><td style="vertical-align:top;">:</td><td><div></div></td></tr><tr><td style="font-weight:bold;vertical-align:top;">REMOTE_ADDR</td><td style="vertical-align:top;">:</td><td><div>127.0.0.1</div></td></tr><tr><td style="font-weight:bold;vertical-align:top;">REMOTE_PORT</td><td style="vertical-align:top;">:</td><td><div>32822</div></td></tr><tr><td style="font-weight:bold;vertical-align:top;">REQUEST_METHOD</td><td style="vertical-align:top;">:</td><td><div>GET</div></td></tr><tr><td style="font-weight:bold;vertical-align:top;">SCRIPT_NAME</td><td style="vertical-align:top;">:</td><td><div></div></td></tr><tr><td style="font-weight:bold;vertical-align:top;">SERVER_NAME</td><td style="vertical-align:top;">:</td><td><div>adolfo-PC</div></td></tr><tr><td style="font-weight:bold;vertical-align:top;">SERVER_PORT</td><td style="vertical-align:top;">:</td><td><div>8000</div></td></tr><tr><td style="font-weight:bold;vertical-align:top;">SERVER_PROTOCOL</td><td style="vertical-align:top;">:</td><td><div>HTTP/1.1</div></td></tr><tr><td style="font-weight:bold;vertical-align:top;">SERVER_SOFTWARE</td><td style="vertical-align:top;">:</td><td><div>Rocket 1.2.6</div></td></tr><tr><td style="font-weight:bold;vertical-align:top;">app_folders</td><td style="vertical-align:top;">:</td><td><div>set([&#x27;/home/adolfo/Desktop/PROYECTO ULAB/applications/SIGULAB/&#x27;])</div></td></tr><tr><td style="font-weight:bold;vertical-align:top;">applications_parent</td><td style="vertical-align:top;">:</td><td><div>/home/adolfo/Desktop/PROYECTO ULAB</div></td></tr><tr><td style="font-weight:bold;vertical-align:top;">cmd_args</td><td style="vertical-align:top;">:</td><td><div><table></table></div></td></tr><tr><td style="font-weight:bold;vertical-align:top;">cmd_options</td><td style="vertical-align:top;">:</td><td><div>&lt;Values at 0x7f86bd8e6680: {&#x27;verbose&#x27;: False, &#x27;ip&#x27;: &#x27;127.0.0.1&#x27;, &#x27;debuglevel&#x27;: 30, &#x27;with_scheduler&#x27;: False, &#x27;shutdown_timeout&#x27;: 5, &#x27;taskbar&#x27;: False, &#x27;with_coverage&#x27;: False, &#x27;pid_filename&#x27;: &#x27;httpserver.pid&#x27;, &#x27;maxthreads&#x27;: None, &#x27;softcron&#x27;: False, &#x27;server_name&#x27;: &#x27;adolfo-PC&#x27;, &#x27;bpython&#x27;: False, &#x27;nogui&#x27;: False, &#x27;port&#x27;: 8000, &#x27;print_errors&#x27;: False, &#x27;extcron&#x27;: False, &#x27;runcron&#x27;: False, &#x27;run_system_tests&#x27;: False, &#x27;test&#x27;: None, &#x27;folder&#x27;: &#x27;/home/adolfo/Desktop/PROYECTO ULAB&#x27;, &#x27;config&#x27;: &#x27;&#x27;, &#x27;minthreads&#x27;: None, &#x27;shell&#x27;: None, &#x27;run&#x27;: &#x27;&#x27;, &#x27;log_filename&#x27;: &#x27;httpserver.log&#x27;, &#x27;profiler_dir&#x27;: None, &#x27;args&#x27;: [&#x27;&#x27;], &#x27;socket_timeout&#x27;: 5, &#x27;ssl_ca_certificate&#x27;: None, &#x27;scheduler&#x27;: None, &#x27;interfaces&#x27;: None, &#x27;ssl_private_key&#x27;: &#x27;&#x27;, &#x27;gae&#x27;: None, &#x27;password&#x27;: &#x27;******&#x27;, &#x27;request_queue_size&#x27;: 5, &#x27;ssl_certificate&#x27;: &#x27;&#x27;, &#x27;cronjob&#x27;: False, &#x27;numthreads&#x27;: None, &#x27;quiet&#x27;: False, &#x27;import_models&#x27;: False, &#x27;timeout&#x27;: 10, &#x27;plain&#x27;: False, &#x27;nobanner&#x27;: False}&gt;</div></td></tr><tr><td style="font-weight:bold;vertical-align:top;">db_sessions</td><td style="vertical-align:top;">:</td><td><div>set([])</div></td></tr><tr><td style="font-weight:bold;vertical-align:top;">debugging</td><td style="vertical-align:top;">:</td><td><div>False</div></td></tr><tr><td style="font-weight:bold;vertical-align:top;">gluon_parent</td><td style="vertical-align:top;">:</td><td><div>/home/adolfo/Desktop/PROYECTO ULAB</div></td></tr><tr><td style="font-weight:bold;vertical-align:top;">http_accept</td><td style="vertical-align:top;">:</td><td><div>text/html,application/xhtml+xml,application/xml;q=0.9,image/webp,*/*;q=0.8</div></td></tr><tr><td style="font-weight:bold;vertical-align:top;">http_accept_encoding</td><td style="vertical-align:top;">:</td><td><div>gzip, deflate, sdch, br</div></td></tr><tr><td style="font-weight:bold;vertical-align:top;">http_accept_language</td><td style="vertical-align:top;">:</td><td><div>es,en;q=0.8</div></td></tr><tr><td style="font-weight:bold;vertical-align:top;">http_connection</td><td style="vertical-align:top;">:</td><td><div>keep-alive</div></td></tr><tr><td style="font-weight:bold;vertical-align:top;">http_dnt</td><td style="vertical-align:top;">:</td><td><div>1</div></td></tr><tr><td style="font-weight:bold;vertical-align:top;">http_host</td><td style="vertical-align:top;">:</td><td><div>127.0.0.1:8000</div></td></tr><tr><td style="font-weight:bold;vertical-align:top;">http_upgrade_insecure_requests</td><td style="vertical-align:top;">:</td><td><div>1</div></td></tr><tr><td style="font-weight:bold;vertical-align:top;">http_user_agent</td><td style="vertical-align:top;">:</td><td><div>Mozilla/5.0 (X11; Linux x86_64) AppleWebKit/537.36 (KHTML, like Gecko) Chrome/56.0.2924.87 Safari/537.36</div></td></tr><tr><td style="font-weight:bold;vertical-align:top;">is_jython</td><td style="vertical-align:top;">:</td><td><div>False</div></td></tr><tr><td style="font-weight:bold;vertical-align:top;">is_pypy</td><td style="vertical-align:top;">:</td><td><div>False</div></td></tr><tr><td style="font-weight:bold;vertical-align:top;">is_source</td><td style="vertical-align:top;">:</td><td><div>True</div></td></tr><tr><td style="font-weight:bold;vertical-align:top;">path_info</td><td style="vertical-align:top;">:</td><td><div>/</div></td></tr><tr><td style="font-weight:bold;vertical-align:top;">query_string</td><td style="vertical-align:top;">:</td><td><div></div></td></tr><tr><td style="font-weight:bold;vertical-align:top;">remote_addr</td><td style="vertical-align:top;">:</td><td><div>127.0.0.1</div></td></tr><tr><td style="font-weight:bold;vertical-align:top;">remote_port</td><td style="vertical-align:top;">:</td><td><div>32822</div></td></tr><tr><td style="font-weight:bold;vertical-align:top;">request_method</td><td style="vertical-align:top;">:</td><td><div>GET</div></td></tr><tr><td style="font-weight:bold;vertical-align:top;">request_uri</td><td style="vertical-align:top;">:</td><td><div>/SIGULAB/default/index</div></td></tr><tr><td style="font-weight:bold;vertical-align:top;">script_name</td><td style="vertical-align:top;">:</td><td><div></div></td></tr><tr><td style="font-weight:bold;vertical-align:top;">server_name</td><td style="vertical-align:top;">:</td><td><div>adolfo-PC</div></td></tr><tr><td style="font-weight:bold;vertical-align:top;">server_port</td><td style="vertical-align:top;">:</td><td><div>8000</div></td></tr><tr><td style="font-weight:bold;vertical-align:top;">server_protocol</td><td style="vertical-align:top;">:</td><td><div>HTTP/1.1</div></td></tr><tr><td style="font-weight:bold;vertical-align:top;">server_software</td><td style="vertical-align:top;">:</td><td><div>Rocket 1.2.6</div></td></tr><tr><td style="font-weight:bold;vertical-align:top;">web2py_original_uri</td><td style="vertical-align:top;">:</td><td><div>/</div></td></tr><tr><td style="font-weight:bold;vertical-align:top;">web2py_path</td><td style="vertical-align:top;">:</td><td><div>/home/adolfo/Desktop/PROYECTO ULAB</div></td></tr><tr><td style="font-weight:bold;vertical-align:top;">web2py_version</td><td style="vertical-align:top;">:</td><td><div>2.14.6-stable+timestamp.2016.05.10.00.21.47</div></td></tr><tr><td style="font-weight:bold;vertical-align:top;">wsgi.errors</td><td style="vertical-align:top;">:</td><td><div>&lt;open file &#x27;&lt;stderr&gt;&#x27;, mode &#x27;w&#x27; at 0x7f86c86b21e0&gt;</div></td></tr><tr><td style="font-weight:bold;vertical-align:top;">wsgi.file_wrapper</td><td style="vertical-align:top;">:</td><td><div>&lt;class wsgiref.util.FileWrapper at 0x7f86bd997120&gt;</div></td></tr><tr><td style="font-weight:bold;vertical-align:top;">wsgi.input</td><td style="vertical-align:top;">:</td><td><div>&lt;socket._fileobject object at 0x7f86bd93fd50&gt;</div></td></tr><tr><td style="font-weight:bold;vertical-align:top;">wsgi.multiprocess</td><td style="vertical-align:top;">:</td><td><div>False</div></td></tr><tr><td style="font-weight:bold;vertical-align:top;">wsgi.multithread</td><td style="vertical-align:top;">:</td><td><div>True</div></td></tr><tr><td style="font-weight:bold;vertical-align:top;">wsgi.run_once</td><td style="vertical-align:top;">:</td><td><div>False</div></td></tr><tr><td style="font-weight:bold;vertical-align:top;">wsgi.url_scheme</td><td style="vertical-align:top;">:</td><td><div>http</div></td></tr><tr><td style="font-weight:bold;vertical-align:top;">wsgi.version</td><td style="vertical-align:top;">:</td><td><div><table><tr><td><div>1</div></td></tr><tr><td><div>0</div></td></tr></table></div></td></tr><tr><td style="font-weight:bold;vertical-align:top;">wsgi_errors</td><td style="vertical-align:top;">:</td><td><div>&lt;open file &#x27;&lt;stderr&gt;&#x27;, mode &#x27;w&#x27; at 0x7f86c86b21e0&gt;</div></td></tr><tr><td style="font-weight:bold;vertical-align:top;">wsgi_file_wrapper</td><td style="vertical-align:top;">:</td><td><div>&lt;class wsgiref.util.FileWrapper at 0x7f86bd997120&gt;</div></td></tr><tr><td style="font-weight:bold;vertical-align:top;">wsgi_input</td><td style="vertical-align:top;">:</td><td><div>&lt;socket._fileobject object at 0x7f86bd93fd50&gt;</div></td></tr><tr><td style="font-weight:bold;vertical-align:top;">wsgi_multiprocess</td><td style="vertical-align:top;">:</td><td><div>False</div></td></tr><tr><td style="font-weight:bold;vertical-align:top;">wsgi_multithread</td><td style="vertical-align:top;">:</td><td><div>True</div></td></tr><tr><td style="font-weight:bold;vertical-align:top;">wsgi_run_once</td><td style="vertical-align:top;">:</td><td><div>False</div></td></tr><tr><td style="font-weight:bold;vertical-align:top;">wsgi_url_scheme</td><td style="vertical-align:top;">:</td><td><div>http</div></td></tr><tr><td style="font-weight:bold;vertical-align:top;">wsgi_version</td><td style="vertical-align:top;">:</td><td><div><table><tr><td><div>1</div></td></tr><tr><td><div>0</div></td></tr></table></div></td></tr></table></div></td></tr><tr><td style="font-weight:bold;vertical-align:top;">extension</td><td style="vertical-align:top;">:</td><td><div>html</div></td></tr><tr><td style="font-weight:bold;vertical-align:top;">folder</td><td style="vertical-align:top;">:</td><td><div>/home/adolfo/Desktop/PROYECTO ULAB/applications/SIGULAB/</div></td></tr><tr><td style="font-weight:bold;vertical-align:top;">function</td><td style="vertical-align:top;">:</td><td><div>index</div></td></tr><tr><td style="font-weight:bold;vertical-align:top;">global_settings</td><td style="vertical-align:top;">:</td><td><div><table><tr><td style="font-weight:bold;vertical-align:top;">app_folders</td><td style="vertical-align:top;">:</td><td><div>set([&#x27;/home/adolfo/Desktop/PROYECTO ULAB/applications/SIGULAB/&#x27;])</div></td></tr><tr><td style="font-weight:bold;vertical-align:top;">applications_parent</td><td style="vertical-align:top;">:</td><td><div>/home/adolfo/Desktop/PROYECTO ULAB</div></td></tr><tr><td style="font-weight:bold;vertical-align:top;">cmd_args</td><td style="vertical-align:top;">:</td><td><div><table></table></div></td></tr><tr><td style="font-weight:bold;vertical-align:top;">cmd_options</td><td style="vertical-align:top;">:</td><td><div>&lt;Values at 0x7f86bd8e6680: {&#x27;verbose&#x27;: False, &#x27;ip&#x27;: &#x27;127.0.0.1&#x27;, &#x27;debuglevel&#x27;: 30, &#x27;with_scheduler&#x27;: False, &#x27;shutdown_timeout&#x27;: 5, &#x27;taskbar&#x27;: False, &#x27;with_coverage&#x27;: False, &#x27;pid_filename&#x27;: &#x27;httpserver.pid&#x27;, &#x27;maxthreads&#x27;: None, &#x27;softcron&#x27;: False, &#x27;server_name&#x27;: &#x27;adolfo-PC&#x27;, &#x27;bpython&#x27;: False, &#x27;nogui&#x27;: False, &#x27;port&#x27;: 8000, &#x27;print_errors&#x27;: False, &#x27;extcron&#x27;: False, &#x27;runcron&#x27;: False, &#x27;run_system_tests&#x27;: False, &#x27;test&#x27;: None, &#x27;folder&#x27;: &#x27;/home/adolfo/Desktop/PROYECTO ULAB&#x27;, &#x27;config&#x27;: &#x27;&#x27;, &#x27;minthreads&#x27;: None, &#x27;shell&#x27;: None, &#x27;run&#x27;: &#x27;&#x27;, &#x27;log_filename&#x27;: &#x27;httpserver.log&#x27;, &#x27;profiler_dir&#x27;: None, &#x27;args&#x27;: [&#x27;&#x27;], &#x27;socket_timeout&#x27;: 5, &#x27;ssl_ca_certificate&#x27;: None, &#x27;scheduler&#x27;: None, &#x27;interfaces&#x27;: None, &#x27;ssl_private_key&#x27;: &#x27;&#x27;, &#x27;gae&#x27;: None, &#x27;password&#x27;: &#x27;******&#x27;, &#x27;request_queue_size&#x27;: 5, &#x27;ssl_certificate&#x27;: &#x27;&#x27;, &#x27;cronjob&#x27;: False, &#x27;numthreads&#x27;: None, &#x27;quiet&#x27;: False, &#x27;import_models&#x27;: False, &#x27;timeout&#x27;: 10, &#x27;plain&#x27;: False, &#x27;nobanner&#x27;: False}&gt;</div></td></tr><tr><td style="font-weight:bold;vertical-align:top;">db_sessions</td><td style="vertical-align:top;">:</td><td><div>set([])</div></td></tr><tr><td style="font-weight:bold;vertical-align:top;">debugging</td><td style="vertical-align:top;">:</td><td><div>False</div></td></tr><tr><td style="font-weight:bold;vertical-align:top;">gluon_parent</td><td style="vertical-align:top;">:</td><td><div>/home/adolfo/Desktop/PROYECTO ULAB</div></td></tr><tr><td style="font-weight:bold;vertical-align:top;">is_jython</td><td style="vertical-align:top;">:</td><td><div>False</div></td></tr><tr><td style="font-weight:bold;vertical-align:top;">is_pypy</td><td style="vertical-align:top;">:</td><td><div>False</div></td></tr><tr><td style="font-weight:bold;vertical-align:top;">is_source</td><td style="vertical-align:top;">:</td><td><div>True</div></td></tr><tr><td style="font-weight:bold;vertical-align:top;">local_hosts</td><td style="vertical-align:top;">:</td><td><div><table><tr><td><div>127.0.1.1</div></td></tr><tr><td><div>::1</div></td></tr><tr><td><div>adolfo-PC</div></td></tr><tr><td><div>::ffff:127.0.0.1</div></td></tr><tr><td><div>127.0.0.1</div></td></tr></table></div></td></tr><tr><td style="font-weight:bold;vertical-align:top;">web2py_version</td><td style="vertical-align:top;">:</td><td><div>2.14.6-stable+timestamp.2016.05.10.00.21.47</div></td></tr></table></div></td></tr><tr><td style="font-weight:bold;vertical-align:top;">is_https</td><td style="vertical-align:top;">:</td><td><div>False</div></td></tr><tr><td style="font-weight:bold;vertical-align:top;">is_local</td><td style="vertical-align:top;">:</td><td><div>True</div></td></tr><tr><td style="font-weight:bold;vertical-align:top;">is_restful</td><td style="vertical-align:top;">:</td><td><div>False</div></td></tr><tr><td style="font-weight:bold;vertical-align:top;">is_scheduler</td><td style="vertical-align:top;">:</td><td><div>False</div></td></tr><tr><td style="font-weight:bold;vertical-align:top;">is_shell</td><td style="vertical-align:top;">:</td><td><div>False</div></td></tr><tr><td style="font-weight:bold;vertical-align:top;">now</td><td style="vertical-align:top;">:</td><td><div>datetime.datetime(2017, 2, 10, 19, 54, 13, 895934)</div></td></tr><tr><td style="font-weight:bold;vertical-align:top;">url</td><td style="vertical-align:top;">:</td><td><div>/</div></td></tr><tr><td style="font-weight:bold;vertical-align:top;">utcnow</td><td style="vertical-align:top;">:</td><td><div>datetime.datetime(2017, 2, 10, 23, 54, 13, 896037)</div></td></tr><tr><td style="font-weight:bold;vertical-align:top;">wsgi</td><td style="vertical-align:top;">:</td><td><div>&lt;gluon.main.LazyWSGI object at 0x7f86bb33f8d0&gt;</div></td></tr></table></div>'
tRp58
sS'frames'
p59
(lp60
(dp61
S'file'
p62
S'/home/adolfo/Desktop/PROYECTO ULAB/gluon/restricted.py'
p63
sS'dump'
p64
(dp65
S'environment'
p66
S"{'A': <class 'gluon.html.A'>, 'ANY_OF': <class 'gluon.validators.ANY_OF'>, 'ASSIGNJS': <function ASSIGNJS>, 'B': <class 'gluon.html.B'>, 'BEAUTIFY': <class 'gluon.html.BEAUTIFY'>, 'BODY': <class 'gluon.html.BODY'>, 'BR': <class 'gluon.html.BR'>, 'BUTTON': <class 'gluon.html.BUTTON'>, 'CAT': <class 'gluon.html.CAT'>, 'CENTER': <class 'gluon.html.CENTER'>, ...}"
p67
sS'ccode'
p68
S'<code object <module> at 0x7f86b9ac4c30, file "/...cations/SIGULAB/models/a_tablas_base.py", line 3>'
p69
ssS'lnum'
p70
I227
sS'lines'
p71
(dp72
I224
S'            ccode = code'
p73
sI225
S'        else:'
p74
sI226
S'            ccode = compile2(code, layer)'
p75
sI227
S'        exec ccode in environment'
p76
sI228
S'    except HTTP:'
p77
sI229
S'        raise'
p78
sI230
S'    except RestrictedError:'
p79
sI231
S'        # do not encapsulate (obfuscate) the original RestrictedError'
p80
sI222
S'    try:'
p81
sI223
S'        if isinstance(code, types.CodeType):'
p82
ssS'call'
p83
S'(code="### we prepend t_ to tablenames and f_ to fieldn...nce t_solicitud\',readable=False,writable=False))\\n", environment={\'A\': <class \'gluon.html.A\'>, \'ANY_OF\': <class \'gluon.validators.ANY_OF\'>, \'ASSIGNJS\': <function ASSIGNJS>, \'B\': <class \'gluon.html.B\'>, \'BEAUTIFY\': <class \'gluon.html.BEAUTIFY\'>, \'BODY\': <class \'gluon.html.BODY\'>, \'BR\': <class \'gluon.html.BR\'>, \'BUTTON\': <class \'gluon.html.BUTTON\'>, \'CAT\': <class \'gluon.html.CAT\'>, \'CENTER\': <class \'gluon.html.CENTER\'>, ...}, layer=\'/home/adolfo/Desktop/PROYECTO ULAB/applications/SIGULAB/models/a_tablas_base.py\')'
p84
sS'func'
p85
S'restricted'
p86
sa(dp87
g62
S'/home/adolfo/Desktop/PROYECTO ULAB/applications/SIGULAB/models/a_tablas_base.py'
p88
sg64
(dp89
S'db'
p90
S'undefined'
p91
ssg70
I3
sg71
(dp92
I2
S''
sI3
S'if db(db.auth_group).isempty():'
p93
sI4
S"    db.auth_group.insert(role='Director',description='Director de la Unidad de Laboratorio')"
p94
sI5
S"    db.auth_group.insert(role='Administrador Personal',description='Administrador de Personal')"
p95
sI6
S"    db.auth_group.insert(role='Gestor de Sustancias',description='Gestor de Sustancias')"
p96
sI7
S"    db.auth_group.insert(role='Jefe de Laboratorio',description='Jefe de Laboratorio')"
p97
sI8
S"    db.auth_group.insert(role='Jefe de Secci\xc3\xb3n',description='Jefe de Secci\xc3\xb3n')"
p98
sI9
S"    db.auth_group.insert(role='T\xc3\xa9cnico',description='T\xc3\xa9cnico de Laboratorio')"
p99
sI10
S''
sI11
S''
ssg83
S'()'
p100
sg85
S'<module>'
p101
sasS'pyver'
p102
S'Python 2.7.12: /usr/bin/python (prefix: /usr)'
p103
sS'session'
p104
g57
(S's\x1a\x00\x00\x00<div><table></table></div>'
tRp105
sS'etype'
p106
S"<type 'exceptions.NameError'>"
p107
sS'date'
p108
S'Fri Feb 10 19:54:14 2017'
p109
sS'response'
p110
g57
(S's8\x16\x00\x00<div><table><tr><td style="font-weight:bold;vertical-align:top;">body</td><td style="vertical-align:top;">:</td><td><div>&lt;cStringIO.StringO object at 0x7f86bd90ba08&gt;</div></td></tr><tr><td style="font-weight:bold;vertical-align:top;">cookies</td><td style="vertical-align:top;">:</td><td><div><table><tr><td style="font-weight:bold;vertical-align:top;">session_id_sigulab</td><td style="vertical-align:top;">:</td><td><div>127.0.0.1-76d0e498-b6b3-4632-8c5e-22504ba7db99<table><tr><td style="font-weight:bold;vertical-align:top;">comment</td><td style="vertical-align:top;">:</td><td><div></div></td></tr><tr><td style="font-weight:bold;vertical-align:top;">domain</td><td style="vertical-align:top;">:</td><td><div></div></td></tr><tr><td style="font-weight:bold;vertical-align:top;">expires</td><td style="vertical-align:top;">:</td><td><div></div></td></tr><tr><td style="font-weight:bold;vertical-align:top;">httponly</td><td style="vertical-align:top;">:</td><td><div></div></td></tr><tr><td style="font-weight:bold;vertical-align:top;">max-age</td><td style="vertical-align:top;">:</td><td><div></div></td></tr><tr><td style="font-weight:bold;vertical-align:top;">path</td><td style="vertical-align:top;">:</td><td><div>/</div></td></tr><tr><td style="font-weight:bold;vertical-align:top;">secure</td><td style="vertical-align:top;">:</td><td><div></div></td></tr><tr><td style="font-weight:bold;vertical-align:top;">version</td><td style="vertical-align:top;">:</td><td><div></div></td></tr></table></div></td></tr></table></div></td></tr><tr><td style="font-weight:bold;vertical-align:top;">delimiters</td><td style="vertical-align:top;">:</td><td><div><table><tr><td><div>{{</div></td></tr><tr><td><div>}}</div></td></tr></table></div></td></tr><tr><td style="font-weight:bold;vertical-align:top;">files</td><td style="vertical-align:top;">:</td><td><div><table></table></div></td></tr><tr><td style="font-weight:bold;vertical-align:top;">flash</td><td style="vertical-align:top;">:</td><td><div></div></td></tr><tr><td style="font-weight:bold;vertical-align:top;">form_label_separator</td><td style="vertical-align:top;">:</td><td><div>: </div></td></tr><tr><td style="font-weight:bold;vertical-align:top;">formstyle</td><td style="vertical-align:top;">:</td><td><div>table3cols</div></td></tr><tr><td style="font-weight:bold;vertical-align:top;">generic_patterns</td><td style="vertical-align:top;">:</td><td><div><table><tr><td><div>*</div></td></tr></table></div></td></tr><tr><td style="font-weight:bold;vertical-align:top;">headers</td><td style="vertical-align:top;">:</td><td><div><table><tr><td style="font-weight:bold;vertical-align:top;">X-Powered-By</td><td style="vertical-align:top;">:</td><td><div>web2py</div></td></tr></table></div></td></tr><tr><td style="font-weight:bold;vertical-align:top;">menu</td><td style="vertical-align:top;">:</td><td><div><table></table></div></td></tr><tr><td style="font-weight:bold;vertical-align:top;">meta</td><td style="vertical-align:top;">:</td><td><div><table></table></div></td></tr><tr><td style="font-weight:bold;vertical-align:top;">models_to_run</td><td style="vertical-align:top;">:</td><td><div><table><tr><td><div>^\\w+\\.py$</div></td></tr><tr><td><div>^default/\\w+\\.py$</div></td></tr><tr><td><div>^default/index/\\w+\\.py$</div></td></tr></table></div></td></tr><tr><td style="font-weight:bold;vertical-align:top;">postprocessing</td><td style="vertical-align:top;">:</td><td><div><table></table></div></td></tr><tr><td style="font-weight:bold;vertical-align:top;">session_client</td><td style="vertical-align:top;">:</td><td><div>127.0.0.1</div></td></tr><tr><td style="font-weight:bold;vertical-align:top;">session_cookie_compression_level</td><td style="vertical-align:top;">:</td><td><div>None</div></td></tr><tr><td style="font-weight:bold;vertical-align:top;">session_cookie_expires</td><td style="vertical-align:top;">:</td><td><div>None</div></td></tr><tr><td style="font-weight:bold;vertical-align:top;">session_data_name</td><td style="vertical-align:top;">:</td><td><div>session_data_sigulab</div></td></tr><tr><td style="font-weight:bold;vertical-align:top;">session_file</td><td style="vertical-align:top;">:</td><td><div>None</div></td></tr><tr><td style="font-weight:bold;vertical-align:top;">session_filename</td><td style="vertical-align:top;">:</td><td><div>/home/adolfo/Desktop/PROYECTO ULAB/applications/SIGULAB/sessions/127.0.0.1-76d0e498-b6b3-4632-8c5e-22504ba7db99</div></td></tr><tr><td style="font-weight:bold;vertical-align:top;">session_hash</td><td style="vertical-align:top;">:</td><td><div>c0762cbf4baf7f9af97c051e7fcb8083</div></td></tr><tr><td style="font-weight:bold;vertical-align:top;">session_id</td><td style="vertical-align:top;">:</td><td><div>127.0.0.1-76d0e498-b6b3-4632-8c5e-22504ba7db99</div></td></tr><tr><td style="font-weight:bold;vertical-align:top;">session_id_name</td><td style="vertical-align:top;">:</td><td><div>session_id_sigulab</div></td></tr><tr><td style="font-weight:bold;vertical-align:top;">session_masterapp</td><td style="vertical-align:top;">:</td><td><div>SIGULAB</div></td></tr><tr><td style="font-weight:bold;vertical-align:top;">session_new</td><td style="vertical-align:top;">:</td><td><div>True</div></td></tr><tr><td style="font-weight:bold;vertical-align:top;">session_storage_type</td><td style="vertical-align:top;">:</td><td><div>file</div></td></tr><tr><td style="font-weight:bold;vertical-align:top;">status</td><td style="vertical-align:top;">:</td><td><div>200</div></td></tr><tr><td style="font-weight:bold;vertical-align:top;">view</td><td style="vertical-align:top;">:</td><td><div>default/index.html</div></td></tr></table></div>'
tRp111
sS'locals'
p112
(dp113
S'OBJECT'
p114
S"<class 'gluon.html.OBJECT'>"
p115
sS'SQLDB'
p116
S"<class 'pydal.base.DAL'>"
p117
sg104
S'<Storage {}>'
p118
sS'LINK'
p119
S"<class 'gluon.html.LINK'>"
p120
sS'BR'
p121
S"<class 'gluon.html.BR'>"
p122
sS'local_import'
p123
S'<function <lambda>>'
p124
sS'OPTGROUP'
p125
S"<class 'gluon.html.OPTGROUP'>"
p126
sS'__package__'
p127
S'None'
p128
sS'PRE'
p129
S"<class 'gluon.html.PRE'>"
p130
sS'IS_INT_IN_RANGE'
p131
S"<class 'gluon.validators.IS_INT_IN_RANGE'>"
p132
sS'IS_LOWER'
p133
S"<class 'gluon.validators.IS_LOWER'>"
p134
sS'IS_STRONG'
p135
S"<class 'gluon.validators.IS_STRONG'>"
p136
sS'cache'
p137
S'<gluon.cache.Cache object>'
p138
sS'IS_IN_DB'
p139
S"<class 'gluon.validators.IS_IN_DB'>"
p140
sS'TAG'
p141
S'<gluon.html.__TAG__ object>'
p142
sS'SQLField'
p143
S"<class 'pydal.objects.Field'>"
p144
sS'BODY'
p145
S"<class 'gluon.html.BODY'>"
p146
sS'IS_DATE_IN_RANGE'
p147
S"<class 'gluon.validators.IS_DATE_IN_RANGE'>"
p148
sS'TH'
p149
S"<class 'gluon.html.TH'>"
p150
sS'URL'
p151
S'<function URL>'
p152
sS'__file__'
p153
S"'/home/adolfo/Desktop/PROYECTO ULAB/applications/SIGULAB/models/a_tablas_base.py'"
p154
sS'P'
S"<class 'gluon.html.P'>"
p155
sS'TFOOT'
p156
S"<class 'gluon.html.TFOOT'>"
p157
sS'XHTML'
p158
S"<class 'gluon.html.XHTML'>"
p159
sS'ON'
p160
S'True'
p161
sS'OL'
p162
S"<class 'gluon.html.OL'>"
p163
sS'TEXTAREA'
p164
S"<class 'gluon.html.TEXTAREA'>"
p165
sS'settings'
p166
S"<Storage {'layout_theme': 'Default', 'subtitle':...l_server': 'localhost', 'login_method': 'local'}>"
p167
sS'MENU'
p168
S"<class 'gluon.html.MENU'>"
p169
sS'LOAD'
p170
S'<function LOAD>'
p171
sS'CODE'
p172
S"<class 'gluon.html.CODE'>"
p173
sS'HTTP'
p174
S"<class 'gluon.http.HTTP'>"
p175
sS'HR'
p176
S"<class 'gluon.html.HR'>"
p177
sS'IS_DATETIME'
p178
S"<class 'gluon.validators.IS_DATETIME'>"
p179
sS'Storage'
p180
S"<class 'gluon.storage.Storage'>"
p181
sS'HEAD'
p182
S"<class 'gluon.html.HEAD'>"
p183
sS'LABEL'
p184
S"<class 'gluon.html.LABEL'>"
p185
sS'CLEANUP'
p186
S"<class 'gluon.validators.CLEANUP'>"
p187
sS'SELECT'
p188
S"<class 'gluon.html.SELECT'>"
p189
sS'CENTER'
p190
S"<class 'gluon.html.CENTER'>"
p191
sS'__builtins__'
p192
S"{'ArithmeticError': <type 'exceptions.ArithmeticError'>, 'AssertionError': <type 'exceptions.AssertionError'>, 'AttributeError': <type 'exceptions.AttributeError'>, 'BaseException': <type 'exceptions.BaseException'>, 'BufferError': <type 'exceptions.BufferError'>, 'BytesWarning': <type 'exceptions.BytesWarning'>, 'DeprecationWarning': <type 'exceptions.DeprecationWarning'>, 'EOFError': <type 'exceptions.EOFError'>, 'Ellipsis': Ellipsis, 'EnvironmentError': <type 'exceptions.EnvironmentError'>, ...}"
p193
sS'HTML'
p194
S"<class 'gluon.html.HTML'>"
p195
sS'SQLFORM'
p196
S"<class 'gluon.sqlhtml.SQLFORM'>"
p197
sS'EM'
p198
S"<class 'gluon.html.EM'>"
p199
sS'redirect'
p200
S'<function redirect>'
p201
sS'FIELDSET'
p202
S"<class 'gluon.html.FIELDSET'>"
p203
sS'IS_EQUAL_TO'
p204
S"<class 'gluon.validators.IS_EQUAL_TO'>"
p205
sS'embed64'
p206
S'<function embed64>'
p207
sS'IS_LIST_OF'
p208
S"<class 'gluon.validators.IS_LIST_OF'>"
p209
sS'__name__'
p210
S"'__restricted__'"
p211
sS'EMBED'
p212
S"<class 'gluon.html.EMBED'>"
p213
sS'FORM'
p214
S"<class 'gluon.html.FORM'>"
p215
sS'H2'
p216
S"<class 'gluon.html.H2'>"
p217
sS'H3'
p218
S"<class 'gluon.html.H3'>"
p219
sS'BUTTON'
p220
S"<class 'gluon.html.BUTTON'>"
p221
sS'H1'
p222
S"<class 'gluon.html.H1'>"
p223
sS'H6'
p224
S"<class 'gluon.html.H6'>"
p225
sS'H4'
p226
S"<class 'gluon.html.H4'>"
p227
sS'H5'
p228
S"<class 'gluon.html.H5'>"
p229
sS'UL'
p230
S"<class 'gluon.html.UL'>"
p231
sS'IS_UPPER'
p232
S"<class 'gluon.validators.IS_UPPER'>"
p233
sS'xmlescape'
p234
S'<function xmlescape>'
p235
sS'IS_TIME'
p236
S"<class 'gluon.validators.IS_TIME'>"
p237
sS'OPTION'
p238
S"<class 'gluon.html.OPTION'>"
p239
sS'TITLE'
p240
S"<class 'gluon.html.TITLE'>"
p241
sS'CRYPT'
p242
S"<class 'gluon.validators.CRYPT'>"
p243
sS'IS_EMPTY_OR'
p244
S"<class 'gluon.validators.IS_EMPTY_OR'>"
p245
sS'MARKMIN'
p246
S"<class 'gluon.html.MARKMIN'>"
p247
sS'INPUT'
p248
S"<class 'gluon.html.INPUT'>"
p249
sS'STRONG'
p250
S"<class 'gluon.html.STRONG'>"
p251
sS'COL'
p252
S"<class 'gluon.html.COL'>"
p253
sS'SCRIPT'
p254
S"<class 'gluon.html.SCRIPT'>"
p255
sS'TABLE'
p256
S"<class 'gluon.html.TABLE'>"
p257
sS'IS_IPV4'
p258
S"<class 'gluon.validators.IS_IPV4'>"
p259
sS'IS_LENGTH'
p260
S"<class 'gluon.validators.IS_LENGTH'>"
p261
sS'IS_IPV6'
p262
S"<class 'gluon.validators.IS_IPV6'>"
p263
sS'XML'
p264
S"<class 'gluon.html.XML'>"
p265
sS'B'
S"<class 'gluon.html.B'>"
p266
sS'IMG'
p267
S"<class 'gluon.html.IMG'>"
p268
sS'SQLTABLE'
p269
S"<class 'gluon.sqlhtml.SQLTABLE'>"
p270
sS'IS_MATCH'
p271
S"<class 'gluon.validators.IS_MATCH'>"
p272
sS'IS_ALPHANUMERIC'
p273
S"<class 'gluon.validators.IS_ALPHANUMERIC'>"
p274
sS'SPAN'
p275
S"<class 'gluon.html.SPAN'>"
p276
sS'IS_JSON'
p277
S"<class 'gluon.validators.IS_JSON'>"
p278
sS'IS_IPADDRESS'
p279
S"<class 'gluon.validators.IS_IPADDRESS'>"
p280
sS'IS_SLUG'
p281
S"<class 'gluon.validators.IS_SLUG'>"
p282
sS'BEAUTIFY'
p283
S"<class 'gluon.html.BEAUTIFY'>"
p284
sS'META'
p285
S"<class 'gluon.html.META'>"
p286
sS'IS_DATE'
p287
S"<class 'gluon.validators.IS_DATE'>"
p288
sS'IS_EMAIL'
p289
S"<class 'gluon.validators.IS_EMAIL'>"
p290
sS'IS_NOT_EMPTY'
p291
S"<class 'gluon.validators.IS_NOT_EMPTY'>"
p292
sS'IS_FLOAT_IN_RANGE'
p293
S"<class 'gluon.validators.IS_FLOAT_IN_RANGE'>"
p294
sS'TBODY'
p295
S"<class 'gluon.html.TBODY'>"
p296
sS'CAT'
p297
S"<class 'gluon.html.CAT'>"
p298
sS'Field'
p299
S"<class 'pydal.objects.Field'>"
p300
sS'IS_LIST_OF_EMAILS'
p301
S"<class 'gluon.validators.IS_LIST_OF_EMAILS'>"
p302
sS'DIV'
p303
S"<class 'gluon.html.DIV'>"
p304
sS'LEGEND'
p305
S"<class 'gluon.html.LEGEND'>"
p306
sS'COLGROUP'
p307
S"<class 'gluon.html.COLGROUP'>"
p308
sS'DAL'
p309
S"<class 'pydal.base.DAL'>"
p310
sS'ASSIGNJS'
p311
S'<function ASSIGNJS>'
p312
sS'TR'
p313
S"<class 'gluon.html.TR'>"
p314
sS'LI'
p315
S"<class 'gluon.html.LI'>"
p316
sS'IFRAME'
p317
S"<class 'gluon.html.IFRAME'>"
p318
sS'TD'
p319
S"<class 'gluon.html.TD'>"
p320
sS'IS_URL'
p321
S"<class 'gluon.validators.IS_URL'>"
p322
sS'A'
S"<class 'gluon.html.A'>"
p323
sS'STYLE'
p324
S"<class 'gluon.html.STYLE'>"
p325
sS'IS_DATETIME_IN_RANGE'
p326
S"<class 'gluon.validators.IS_DATETIME_IN_RANGE'>"
p327
sS'IS_IMAGE'
p328
S"<class 'gluon.validators.IS_IMAGE'>"
p329
sS'I'
S"<class 'gluon.html.I'>"
p330
sS'IS_NOT_IN_DB'
p331
S"<class 'gluon.validators.IS_NOT_IN_DB'>"
p332
sg110
S"<Storage {'body': <cStringIO.StringO object at 0...t 0x7f86bb32ad70>, 'view': 'default/index.html'}>"
p333
sS'THEAD'
p334
S"<class 'gluon.html.THEAD'>"
p335
sS'ANY_OF'
p336
S"<class 'gluon.validators.ANY_OF'>"
p337
sS'IS_NULL_OR'
p338
S"<class 'gluon.validators.IS_EMPTY_OR'>"
p339
sg56
S"<Storage {'_vars': None, 'function': 'index', 'c...fo/Desktop/PROYECTO ULAB/applications/SIGULAB/'}>"
p340
sS'IS_EXPR'
p341
S"<class 'gluon.validators.IS_EXPR'>"
p342
sS'IS_IN_SET'
p343
S"<class 'gluon.validators.IS_IN_SET'>"
p344
sS'IS_UPLOAD_FILENAME'
p345
S"<class 'gluon.validators.IS_UPLOAD_FILENAME'>"
p346
sS'IS_DECIMAL_IN_RANGE'
p347
S"<class 'gluon.validators.IS_DECIMAL_IN_RANGE'>"
p348
sS'TT'
p349
S"<class 'gluon.html.TT'>"
p350
sS'T'
S'<gluon.languages.translator object>'
p351
sssS'traceback'
p352
S'Traceback (most recent call last):\n  File "/home/adolfo/Desktop/PROYECTO ULAB/gluon/restricted.py", line 227, in restricted\n    exec ccode in environment\n  File "/home/adolfo/Desktop/PROYECTO ULAB/applications/SIGULAB/models/a_tablas_base.py", line 3, in <module>\n    if db(db.auth_group).isempty():\nNameError: name \'db\' is not defined\n'
p353
s.