(dp1
S'output'
p2
S"<type 'exceptions.SyntaxError'> non-keyword arg after keyword arg (tablas_base.py, line 41)"
p3
sS'layer'
p4
S'/home/adolfo/Desktop/PROYECTO ULAB/applications/SIGULAB/models/tablas_base.py'
p5
sS'code'
p6
S'### we prepend t_ to tablenames and f_ to fieldnames for disambiguity\n\nif db(db.auth_group).isempty():\n    db.auth_group.insert(role=\'WebMaster\',description=\'Super Usuario\')\n    db.auth_group.insert(role=\'Director\',description=\'Director de la Unidad de Laboratorio\')\n    db.auth_group.insert(role=\'Administrador Personal\',description=\'Administrador de Personal\')\n    db.auth_group.insert(role=\'Gestor de Sustancias\',description=\'Gestor de Sustancias\')\n    db.auth_group.insert(role=\'Jefe de Laboratorio\',description=\'Jefe de Laboratorio\')\n    db.auth_group.insert(role=\'Jefe de Secci\xc3\xb3n\',description=\'Jefe de Secci\xc3\xb3n\')\n    db.auth_group.insert(role=\'T\xc3\xa9cnico\',description=\'T\xc3\xa9cnico de Laboratorio\')\n    db.auth_group.insert(role=\'Usuario Normal\',description=\'Usuario recien registrado\')\n\nif db(db.auth_permission).isempty():\n    db.auth_permission.insert(name=\'director\',table_name=\'t_sustancias\',\n                            group_id=(db(db.auth_group.role == "Director").select(db.auth_group.id).first()))\n    db.auth_permission.insert(name=\'gestor\',table_name=\'t_sustancias\',\n                            group_id=db(db.auth_group.role == "Gestor de Sustancias").select(db.auth_group.id).first())\n    db.auth_permission.insert(name=\'tecnico\',table_name=\'t_inventario\',\n                            group_id=db(db.auth_group.role == "T\xc3\xa9cnico").select(db.auth_group.id).first())\n    db.auth_permission.insert(name=\'jefeseccion\',table_name=\'t_inventario\',\n                            group_id=db(db.auth_group.role == "Jefe de Secci\xc3\xb3n").select(db.auth_group.id).first())\n    db.auth_permission.insert(name=\'jefelab\',table_name=\'t_inventario\',\n                            group_id=db(db.auth_group.role == "Jefe de Laboratorio").select(db.auth_group.id).first())\n\nif db(db.auth_user).isempty():\n        db.auth_user.insert(first_name=\'Super\',last_name=\'Usuario\',email=\'webmaster@sigulab.com\',password=db.auth_user.password.validate(\'0000\')[0])\n        db.auth_membership.insert(user_id=(db(db.auth_user.email == \'webmaster@sigulab.com\').select(db.auth_user.id).first()),\\\n            group_id=db(db.auth_group.role == "WebMaster").select(db.auth_group.id).first());\n\ndb.auth_membership._plural = \'Membres\xc3\xadas\'\ndb.auth_membership._singular = \'Membres\xc3\xada\'\n\ndb.auth_group._plural = \'Privilegios\'\ndb.auth_group._singular = \'Privilegio\'\n\ndb.auth_user._plural = \'Usuarios Registrados\'\ndb.auth_user._singular = \'Usuario Registrado\'\n\ndb.define_table(\'t_users_autorizados\',\n    Field(\'f_email\', \'string\', label=T(\'Email\')),\n    Field(\'f_group\', \'string\', label=T(\'Privilegio\'), requires=IS_IN_DB(db, db.auth_group.id), \'%(role)s\'))\n\ndb.t_users_autorizados._plural = \'Usuarios Autorizados\'\ndb.t_users_autorizados._singular = \'Usuario Autorizado\'\n########################################\ndb.define_table(\'t_regimenes\',\n    Field(\'f_nombre\',\'string\',label=T(\'Nombre\')),\n    format = \'%(f_nombre)s\')\n\nif db(db.t_regimenes).isempty():\n    db.t_regimenes.insert(f_nombre=\'RL4\')\n    db.t_regimenes.insert(f_nombre=\'RL7\')\n    db.t_regimenes.insert(f_nombre=\'RL4 y RL7\')\n    db.t_regimenes.insert(f_nombre=\'N/A\')\n##########################################\ndb.define_table(\'t_ingresos\',\n    Field(\'f_nombre\',label=T(\'Nombre\')),\n    format=\'%(f_nombre)s\'\n)\nif db(db.t_ingresos).isempty():\n    db.t_ingresos.insert(f_nombre=\'Suministro de Almac\xc3\xa9n\')\n    db.t_ingresos.insert(f_nombre=\'Compra a Proveedor\')\n    db.t_ingresos.insert(f_nombre=\'Pr\xc3\xa9stamo\')\n    db.t_ingresos.insert(f_nombre=\'Donaci\xc3\xb3n\')\n##########################################\ndb.define_table(\'t_consumos\',\n    Field(\'f_nombre\',label=T(\'Nombre\')),\n    format=\'%(f_nombre)s\'\n)\nif db(db.t_consumos).isempty():\n    db.t_consumos.insert(f_nombre=\'Pr\xc3\xa1ctica de Laboratorio\')\n    db.t_consumos.insert(f_nombre=\'Tesis\')\n    db.t_consumos.insert(f_nombre=\'Proyecto de Investigaci\xc3\xb3n\')\n    db.t_consumos.insert(f_nombre=\'Servicio de Laboratorio\')\n#    Field(\'f_permiso\',\'string\',label=T(\'Permiso\')),\n#    format=\'%(f_nombreCar)s\',\n#    migrate=settings.migrate)\n\n#db.define_table(\'t_cargo_archive\',db.t_cargo,Field(\'current_record\',\'reference t_cargo\',readable=False,writable=False))\n########################################\n\n\ndb.define_table(\'t_materiales\',\n               Field(\'f_nombre\',\'string\',requires=IS_NOT_EMPTY()),\n               Field(\'f_cas\',\'string\',requires=IS_NOT_EMPTY()),\n               format=\'%(f_nombre)s\')\ndb.t_materiales.f_cas.requires=IS_NOT_IN_DB(db,db.t_materiales.f_cas)\ndb.t_materiales.f_nombre.requires=IS_NOT_IN_DB(db,db.t_materiales.f_nombre)\n\n########################################\ndb.define_table(\'t_estado\',\n               Field(\'f_estado\',\'string\',readable=False,writable=False),\n               format=\'%(f_estado)s\')\n\nif db(db.t_estado).isempty():\n    db.t_estado.insert(f_estado=\'S\xc3\xb3lido\')\n    db.t_estado.insert(f_estado=\'L\xc3\xadquido\')\n    db.t_estado.insert(f_estado=\'Gaseoso\')\n\n########################################\n\ndb.define_table(\'t_sustancias\',\n    Field(\'f_nombre\', \'string\', label=T(\'Nombre\')),\n    Field(\'f_cas\', \'string\', label=T(\'Cas\')),\n    Field(\'f_pureza\', \'integer\',requires=IS_INT_IN_RANGE(0, 101), label=T(\'Pureza\')),\n    Field(\'f_estado\', \'integer\', requires=IS_IN_DB(db,db.t_estado.id,\'%(f_estado)s\'), label=T(\'Estado\'),\n    represent = lambda value,row: str(db(db.t_estado.id == value).select(db.t_estado.f_estado))[18:] ),\n    Field(\'f_control\', \'integer\', label=T(\'Control\'), requires=IS_IN_DB(db,db.t_regimenes.id,\'%(f_nombre)s\'),\n    represent = lambda value,row: str(db(db.t_regimenes.id == value).select(db.t_regimenes.f_nombre))[21:] ),\n    Field(\'f_peligrosidad\', \'string\', label=T(\'Peligrosidad\')),\n    format=\'%(f_nombre)s\',\n    migrate=settings.migrate)\ndb.t_sustancias.id.readable=False\ndb.t_sustancias.id.writable=False\ndb.define_table(\'t_sustancias_archive\',db.t_sustancias,Field(\'current_record\',\'reference t_sustancias\',readable=False,writable=False))\n\n\n\n\n##########################################\ndb.define_table(\'t_laboratorio\',\n    Field(\'f_nombre\', \'string\', notnull=True, label=T(\'Nombre\')),\n    Field(\'f_jefe\',\'integer\', requires=IS_IN_DB(db,db.auth_user.id,\'%(first_name)s %(last_name)s\'), label=T(\'Jefe de Laboratorio\')),\n    format=\'%(f_nombre)s\',\n    migrate=settings.migrate)\n\ndb.define_table(\'t_laboratorio_archive\',db.t_laboratorio,Field(\'current_record\',\'reference t_laboratorio\',readable=False,writable=False))\n\n########################################\ndb.define_table(\'t_seccion\',\n    Field(\'f_seccion\',\'string\',requires=IS_NOT_EMPTY(),label=T(\'Secci\xc3\xb3n\')),\n    Field(\'f_laboratorio\',\'string\',requires=IS_IN_DB(db,db.t_laboratorio.f_nombre,\'%(f_nombre)s\'), label=T(\'Laboratorio\')),\n    Field(\'f_jefe\',\'integer\', requires=IS_IN_DB(db,db.auth_user.id,\'%(first_name)s %(last_name)s\'), label=T(\'Jefe de Seccion\')),\n    format=\'%(f_nombre)s\'\n    )\n\n########################################\ndb.define_table(\'t_espaciofisico\',\n    Field(\'f_espacio\', \'string\', requires=IS_NOT_EMPTY(), label=T(\'Espacio\')),\n    Field(\'f_direccion\', \'string\', requires=IS_NOT_EMPTY(), label=T(\'Direccion\')),\n    Field(\'f_seccion\', \'integer\',requires=IS_IN_DB(db,db.t_seccion.id,\'%(f_laboratorio)s, seccion %(f_seccion)s\'), label=T(\'Seccion\')),\n    Field(\'f_tecnico\',\'integer\', requires=IS_IN_DB(db,db.auth_user.id,\'%(first_name)s %(last_name)s\'), label=T(\'Tecnico\')),\n    format=\'%(f_espacio)s\',\n    migrate=settings.migrate)\ndb.t_espaciofisico.id.represent= lambda value,row: str(row.f_espacio)[27:]\n\n########################################\ndb.define_table(\'t_inventario\',\n    Field(\'f_sustancia\', \'integer\', label=T(\'Sustancia\'),requires=IS_IN_DB(db,db.t_sustancias.id,\'%(f_nombre)s\')\\\n    ,represent= lambda name,row: \\\n                A(str(db(db.t_sustancias.id==name).select(db.t_sustancias.f_nombre))[22:],_href=URL(\'sustancias\',\'view_bitacora\',vars=dict(sust=row.f_sustancia,esp=row.f_espaciofisico)))),\n    Field(\'f_espaciofisico\', \'integer\',readable=False,writable=False ,requires=IS_IN_DB(db,db.t_espaciofisico.id,\'%(f_espacio)s\') ,\n    represent= lambda value,row: str(db(db.t_espaciofisico.id == value).select(db.t_espaciofisico.f_espacio))[27:],\n    label=T(\'Espaciofisico\')),\n    Field(\'f_cantidadonacion\', \'float\',default=0,label=T(\'Cantidad Donacion\'),requires=IS_FLOAT_IN_RANGE(0,1e1000)),\n    Field(\'f_cantidadusointerno\', \'float\',default=0,label=T(\'Cantidad Uso Interno\'),requires=IS_FLOAT_IN_RANGE(0,1e1000)),\n    Field(\'f_total\',\'float\',label=T(\'Cantidad Total\'),writable=False,compute=lambda r:r.f_cantidadonacion+r.f_cantidadusointerno,requires=IS_FLOAT_IN_RANGE(0,1e1000)),\n    Field(\'f_seccion\',\'integer\',readable=False,writable=False,requires=IS_IN_DB(db,db.t_seccion.id,\'%(f_seccion)s\'),label=T(\'Secci\xc3\xb3n\'),\n    compute = lambda r: long(str(db(db.t_espaciofisico.id == r.f_espaciofisico).select(db.t_espaciofisico.f_seccion))[26:]) ),\n    Field(\'f_laboratorio\',\'string\',requires=IS_IN_DB(db,db.t_laboratorio.id,\'%(f_nombre)s\'),readable=False,writable=False,\n    compute = lambda r: str( db((db.t_seccion.id == r.f_seccion)).select(db.t_seccion.f_laboratorio) )[25:-2] ),\n    format=\'%(f_sustancia)s\',\n    migrate=settings.migrate)\n\ndb.define_table(\'t_inventario_archive\',db.t_inventario,Field(\'current_record\',\'reference t_inventario\',readable=False,writable=False))\ndb.t_inventario.id.readable = False\n\n########################################\ndb.define_table(\'t_bitacora\',\n    Field(\'f_fechaingreso\',\'datetime\',label=T(\'Fecha\')),\n    Field(\'f_sustancia\', \'integer\',readable=False,writable=False,requires=IS_IN_DB(db,db.t_sustancias.id,\'%(f_nombre)s\'),\n            represent=lambda f_sustancia,row: str(db(db.t_sustancias.id == f_sustancia).select(db.t_sustancias.f_nombre))[22:],\n            notnull=True, label=T(\'Sustancia\')),\n    Field(\'f_proceso\', \'string\', notnull=True, label=T(\'Proceso\')),\n    Field(\'f_ingreso\', \'float\', default=0, label=T(\'Ingreso\'),requires=IS_FLOAT_IN_RANGE(0,1e1000)),\n    Field(\'f_consumo\', \'float\', default=0,label=T(\'Consumo\'),requires=IS_FLOAT_IN_RANGE(0,1e1000)),\n    Field(\'f_cantidad\', \'float\', label=T(\'Cantidad\'),requires=IS_FLOAT_IN_RANGE(0,1e1000),writable=False,default=0,compute=lambda r:\n    r.f_ingreso-r.f_consumo+float ( str ( db( (db.t_inventario.f_sustancia == r.f_sustancia) & (db.t_inventario.f_espaciofisico == r.f_espaciofisico) ).select(db.t_inventario.f_cantidadusointerno) )[33:]) ),\n    Field(\'f_fecha\', \'datetime\', label=T(\'FechaIngreso\'),writable=False,readable=False, default=request.now),\n    Field(\'f_espaciofisico\', \'integer\',readable=False, requires=IS_IN_DB(db,db.t_espaciofisico.id,\'%(f_espacio)s\') ,\n    writable=False, represent= lambda value,row: str(db(db.t_espaciofisico.id == value).select(db.t_espaciofisico.f_espacio))[26:],\n     label=T(\'Espacio Fisico\'),notnull=True),\n    Field(\'f_descripcion\',\'text\',label=T(\'Descripci\xc3\xb3n\'),readable=False),\n    format=\'%(f_sustancia)s\',\n    migrate=settings.migrate)\ndb.t_bitacora.id.readable = False\n\ndb.define_table(\'t_bitacora_archive\',db.t_bitacora,Field(\'current_record\',\'reference t_bitacora\',readable=False,writable=False))\n\n\n########################################\ndb.define_table(\'t_solicitud\',\n    Field(\'f_sustancia\', \'string\', label=T(\'Sustancia\')),\n    Field(\'f_espaciofisico\', \'string\', label=T(\'Espaciofisico\')),\n    Field(\'f_seccion\', \'string\', label=T(\'Seccion\')),\n    Field(\'f_responsable\', \'string\', label=T(\'Responsable\')),\n    Field(\'f_solicitador\', \'string\', label=T(\'Solicitador\')),\n    Field(\'f_cantidadsolicitada\', \'string\', label=T(\'Cantidadsolicitada\')),\n    Field(\'f_estado\', \'string\', label=T(\'Estado\')),\n    format=\'%(f_sustancia)s\',\n    migrate=settings.migrate)\n\ndb.define_table(\'t_solicitud_archive\',db.t_solicitud,Field(\'current_record\',\'reference t_solicitud\',readable=False,writable=False))\n'
p7
sS'snapshot'
p8
(dp9
S'exception'
p10
(dp11
S'__getslice__'
p12
S"<method-wrapper '__getslice__' of exceptions.SyntaxError object>"
p13
sS'text'
p14
S'"Field(\'f_group\', \'string\', label=T(\'Privilegio\')...res=IS_IN_DB(db, db.auth_group.id), \'%(role)s\'))\\n"'
p15
sS'__str__'
p16
S"<method-wrapper '__str__' of exceptions.SyntaxError object>"
p17
sS'__reduce__'
p18
S'<built-in method __reduce__ of exceptions.SyntaxError object>'
p19
sS'__dict__'
p20
S'{}'
p21
sS'__sizeof__'
p22
S'<built-in method __sizeof__ of exceptions.SyntaxError object>'
p23
sS'__init__'
p24
S"<method-wrapper '__init__' of exceptions.SyntaxError object>"
p25
sS'__setattr__'
p26
S"<method-wrapper '__setattr__' of exceptions.SyntaxError object>"
p27
sS'__reduce_ex__'
p28
S'<built-in method __reduce_ex__ of exceptions.SyntaxError object>'
p29
sS'__new__'
p30
S'<built-in method __new__ of type object>'
p31
sS'__format__'
p32
S'<built-in method __format__ of exceptions.SyntaxError object>'
p33
sS'__class__'
p34
S"<type 'exceptions.SyntaxError'>"
p35
sS'filename'
p36
S"'/home/adolfo/Desktop/PROYECTO ULAB/applications/SIGULAB/models/tablas_base.py'"
p37
sS'lineno'
p38
S'41'
p39
sS'msg'
p40
S"'non-keyword arg after keyword arg'"
p41
sS'__doc__'
p42
S"'Invalid syntax.'"
p43
sS'__getitem__'
p44
S"<method-wrapper '__getitem__' of exceptions.SyntaxError object>"
p45
sS'__setstate__'
p46
S'<built-in method __setstate__ of exceptions.SyntaxError object>'
p47
sS'__getattribute__'
p48
S"<method-wrapper '__getattribute__' of exceptions.SyntaxError object>"
p49
sS'print_file_and_line'
p50
S'None'
p51
sS'args'
p52
S'(\'non-keyword arg after keyword arg\', (\'/home/adolfo/Desktop/PROYECTO ULAB/applications/SIGULAB/models/tablas_base.py\', 41, None, "Field(\'f_group\', \'string\', label=T(\'Privilegio\')...res=IS_IN_DB(db, db.auth_group.id), \'%(role)s\'))\\n"))'
p53
sS'__subclasshook__'
p54
S'<built-in method __subclasshook__ of type object>'
p55
sS'offset'
p56
S'None'
p57
sS'__unicode__'
p58
S'<built-in method __unicode__ of exceptions.SyntaxError object>'
p59
sS'__delattr__'
p60
S"<method-wrapper '__delattr__' of exceptions.SyntaxError object>"
p61
sS'__repr__'
p62
S"<method-wrapper '__repr__' of exceptions.SyntaxError object>"
p63
sS'__hash__'
p64
S"<method-wrapper '__hash__' of exceptions.SyntaxError object>"
p65
ssS'evalue'
p66
S'non-keyword arg after keyword arg (tablas_base.py, line 41)'
p67
sS'request'
p68
cgluon.html
XML_unpickle
p69
(S's\xa3Z\x00\x00<div><table><tr><td style="font-weight:bold;vertical-align:top;">ajax</td><td style="vertical-align:top;">:</td><td><div>False</div></td></tr><tr><td style="font-weight:bold;vertical-align:top;">application</td><td style="vertical-align:top;">:</td><td><div>SIGULAB</div></td></tr><tr><td style="font-weight:bold;vertical-align:top;">args</td><td style="vertical-align:top;">:</td><td><div><table><tr><td><div>t_users_autorizados</div></td></tr><tr><td><div>edit</div></td></tr><tr><td><div>t_users_autorizados</div></td></tr><tr><td><div>1</div></td></tr></table></div></td></tr><tr><td style="font-weight:bold;vertical-align:top;">cid</td><td style="vertical-align:top;">:</td><td><div>None</div></td></tr><tr><td style="font-weight:bold;vertical-align:top;">client</td><td style="vertical-align:top;">:</td><td><div>127.0.0.1</div></td></tr><tr><td style="font-weight:bold;vertical-align:top;">controller</td><td style="vertical-align:top;">:</td><td><div>gestion</div></td></tr><tr><td style="font-weight:bold;vertical-align:top;">cookies</td><td style="vertical-align:top;">:</td><td><div><table><tr><td style="font-weight:bold;vertical-align:top;">session_id_admin</td><td style="vertical-align:top;">:</td><td><div>127.0.0.1-eb0584ef-b6d4-4547-b804-08344a0a845e<table><tr><td style="font-weight:bold;vertical-align:top;">comment</td><td style="vertical-align:top;">:</td><td><div></div></td></tr><tr><td style="font-weight:bold;vertical-align:top;">domain</td><td style="vertical-align:top;">:</td><td><div></div></td></tr><tr><td style="font-weight:bold;vertical-align:top;">expires</td><td style="vertical-align:top;">:</td><td><div></div></td></tr><tr><td style="font-weight:bold;vertical-align:top;">httponly</td><td style="vertical-align:top;">:</td><td><div></div></td></tr><tr><td style="font-weight:bold;vertical-align:top;">max-age</td><td style="vertical-align:top;">:</td><td><div></div></td></tr><tr><td style="font-weight:bold;vertical-align:top;">path</td><td style="vertical-align:top;">:</td><td><div></div></td></tr><tr><td style="font-weight:bold;vertical-align:top;">secure</td><td style="vertical-align:top;">:</td><td><div></div></td></tr><tr><td style="font-weight:bold;vertical-align:top;">version</td><td style="vertical-align:top;">:</td><td><div></div></td></tr></table></div></td></tr><tr><td style="font-weight:bold;vertical-align:top;">session_id_sigulab</td><td style="vertical-align:top;">:</td><td><div>127.0.0.1-2ba9d3d8-98e0-4800-95e2-186f09c250bb<table><tr><td style="font-weight:bold;vertical-align:top;">comment</td><td style="vertical-align:top;">:</td><td><div></div></td></tr><tr><td style="font-weight:bold;vertical-align:top;">domain</td><td style="vertical-align:top;">:</td><td><div></div></td></tr><tr><td style="font-weight:bold;vertical-align:top;">expires</td><td style="vertical-align:top;">:</td><td><div></div></td></tr><tr><td style="font-weight:bold;vertical-align:top;">httponly</td><td style="vertical-align:top;">:</td><td><div></div></td></tr><tr><td style="font-weight:bold;vertical-align:top;">max-age</td><td style="vertical-align:top;">:</td><td><div></div></td></tr><tr><td style="font-weight:bold;vertical-align:top;">path</td><td style="vertical-align:top;">:</td><td><div></div></td></tr><tr><td style="font-weight:bold;vertical-align:top;">secure</td><td style="vertical-align:top;">:</td><td><div></div></td></tr><tr><td style="font-weight:bold;vertical-align:top;">version</td><td style="vertical-align:top;">:</td><td><div></div></td></tr></table></div></td></tr></table></div></td></tr><tr><td style="font-weight:bold;vertical-align:top;">env</td><td style="vertical-align:top;">:</td><td><div><table><tr><td style="font-weight:bold;vertical-align:top;">HTTP_ACCEPT</td><td style="vertical-align:top;">:</td><td><div>text/html,application/xhtml+xml,application/xml;q=0.9,image/webp,*/*;q=0.8</div></td></tr><tr><td style="font-weight:bold;vertical-align:top;">HTTP_ACCEPT_ENCODING</td><td style="vertical-align:top;">:</td><td><div>gzip, deflate, sdch, br</div></td></tr><tr><td style="font-weight:bold;vertical-align:top;">HTTP_ACCEPT_LANGUAGE</td><td style="vertical-align:top;">:</td><td><div>es,en;q=0.8</div></td></tr><tr><td style="font-weight:bold;vertical-align:top;">HTTP_CACHE_CONTROL</td><td style="vertical-align:top;">:</td><td><div>max-age=0</div></td></tr><tr><td style="font-weight:bold;vertical-align:top;">HTTP_CONNECTION</td><td style="vertical-align:top;">:</td><td><div>keep-alive</div></td></tr><tr><td style="font-weight:bold;vertical-align:top;">HTTP_COOKIE</td><td style="vertical-align:top;">:</td><td><div>session_id_sigulab=127.0.0.1-2ba9d3d8-98e0-4800-95e2-186f09c250bb; session_id_admin=127.0.0.1-eb0584ef-b6d4-4547-b804-08344a0a845e</div></td></tr><tr><td style="font-weight:bold;vertical-align:top;">HTTP_DNT</td><td style="vertical-align:top;">:</td><td><div>1</div></td></tr><tr><td style="font-weight:bold;vertical-align:top;">HTTP_HOST</td><td style="vertical-align:top;">:</td><td><div>127.0.0.1:8000</div></td></tr><tr><td style="font-weight:bold;vertical-align:top;">HTTP_REFERER</td><td style="vertical-align:top;">:</td><td><div>http://127.0.0.1:8000/gestion/autorizados/t_users_autorizados?_signature=724311e8341ffaebc1f629c478886c1b0e9eac1f</div></td></tr><tr><td style="font-weight:bold;vertical-align:top;">HTTP_UPGRADE_INSECURE_REQUESTS</td><td style="vertical-align:top;">:</td><td><div>1</div></td></tr><tr><td style="font-weight:bold;vertical-align:top;">HTTP_USER_AGENT</td><td style="vertical-align:top;">:</td><td><div>Mozilla/5.0 (X11; Linux x86_64) AppleWebKit/537.36 (KHTML, like Gecko) Chrome/56.0.2924.87 Safari/537.36</div></td></tr><tr><td style="font-weight:bold;vertical-align:top;">PATH_INFO</td><td style="vertical-align:top;">:</td><td><div>/gestion/autorizados/t_users_autorizados/edit/t_users_autorizados/1</div></td></tr><tr><td style="font-weight:bold;vertical-align:top;">QUERY_STRING</td><td style="vertical-align:top;">:</td><td><div>_signature=40840651558a92ca5ce83684a44f757467154d65</div></td></tr><tr><td style="font-weight:bold;vertical-align:top;">REMOTE_ADDR</td><td style="vertical-align:top;">:</td><td><div>127.0.0.1</div></td></tr><tr><td style="font-weight:bold;vertical-align:top;">REMOTE_PORT</td><td style="vertical-align:top;">:</td><td><div>41235</div></td></tr><tr><td style="font-weight:bold;vertical-align:top;">REQUEST_METHOD</td><td style="vertical-align:top;">:</td><td><div>GET</div></td></tr><tr><td style="font-weight:bold;vertical-align:top;">SCRIPT_NAME</td><td style="vertical-align:top;">:</td><td><div></div></td></tr><tr><td style="font-weight:bold;vertical-align:top;">SERVER_NAME</td><td style="vertical-align:top;">:</td><td><div>adolfo-PC</div></td></tr><tr><td style="font-weight:bold;vertical-align:top;">SERVER_PORT</td><td style="vertical-align:top;">:</td><td><div>8000</div></td></tr><tr><td style="font-weight:bold;vertical-align:top;">SERVER_PROTOCOL</td><td style="vertical-align:top;">:</td><td><div>HTTP/1.1</div></td></tr><tr><td style="font-weight:bold;vertical-align:top;">SERVER_SOFTWARE</td><td style="vertical-align:top;">:</td><td><div>Rocket 1.2.6</div></td></tr><tr><td style="font-weight:bold;vertical-align:top;">app_folders</td><td style="vertical-align:top;">:</td><td><div>set([&#x27;/home/adolfo/Desktop/PROYECTO ULAB/applications/admin/&#x27;, &#x27;/home/adolfo/Desktop/PROYECTO ULAB/applications/SIGULAB/&#x27;])</div></td></tr><tr><td style="font-weight:bold;vertical-align:top;">applications_parent</td><td style="vertical-align:top;">:</td><td><div>/home/adolfo/Desktop/PROYECTO ULAB</div></td></tr><tr><td style="font-weight:bold;vertical-align:top;">cmd_args</td><td style="vertical-align:top;">:</td><td><div><table></table></div></td></tr><tr><td style="font-weight:bold;vertical-align:top;">cmd_options</td><td style="vertical-align:top;">:</td><td><div>&lt;Values at 0x7f86bd8e6680: {&#x27;verbose&#x27;: False, &#x27;ip&#x27;: &#x27;127.0.0.1&#x27;, &#x27;debuglevel&#x27;: 30, &#x27;with_scheduler&#x27;: False, &#x27;shutdown_timeout&#x27;: 5, &#x27;taskbar&#x27;: False, &#x27;with_coverage&#x27;: False, &#x27;pid_filename&#x27;: &#x27;httpserver.pid&#x27;, &#x27;maxthreads&#x27;: None, &#x27;softcron&#x27;: False, &#x27;server_name&#x27;: &#x27;adolfo-PC&#x27;, &#x27;bpython&#x27;: False, &#x27;nogui&#x27;: False, &#x27;port&#x27;: 8000, &#x27;print_errors&#x27;: False, &#x27;extcron&#x27;: False, &#x27;runcron&#x27;: False, &#x27;run_system_tests&#x27;: False, &#x27;test&#x27;: None, &#x27;folder&#x27;: &#x27;/home/adolfo/Desktop/PROYECTO ULAB&#x27;, &#x27;config&#x27;: &#x27;&#x27;, &#x27;minthreads&#x27;: None, &#x27;shell&#x27;: None, &#x27;run&#x27;: &#x27;&#x27;, &#x27;log_filename&#x27;: &#x27;httpserver.log&#x27;, &#x27;profiler_dir&#x27;: None, &#x27;args&#x27;: [&#x27;&#x27;], &#x27;socket_timeout&#x27;: 5, &#x27;ssl_ca_certificate&#x27;: None, &#x27;scheduler&#x27;: None, &#x27;interfaces&#x27;: None, &#x27;ssl_private_key&#x27;: &#x27;&#x27;, &#x27;gae&#x27;: None, &#x27;password&#x27;: &#x27;******&#x27;, &#x27;request_queue_size&#x27;: 5, &#x27;ssl_certificate&#x27;: &#x27;&#x27;, &#x27;cronjob&#x27;: False, &#x27;numthreads&#x27;: None, &#x27;quiet&#x27;: False, &#x27;import_models&#x27;: False, &#x27;timeout&#x27;: 10, &#x27;plain&#x27;: False, &#x27;nobanner&#x27;: False}&gt;</div></td></tr><tr><td style="font-weight:bold;vertical-align:top;">db_sessions</td><td style="vertical-align:top;">:</td><td><div>set([])</div></td></tr><tr><td style="font-weight:bold;vertical-align:top;">debugging</td><td style="vertical-align:top;">:</td><td><div>False</div></td></tr><tr><td style="font-weight:bold;vertical-align:top;">gluon_parent</td><td style="vertical-align:top;">:</td><td><div>/home/adolfo/Desktop/PROYECTO ULAB</div></td></tr><tr><td style="font-weight:bold;vertical-align:top;">http_accept</td><td style="vertical-align:top;">:</td><td><div>text/html,application/xhtml+xml,application/xml;q=0.9,image/webp,*/*;q=0.8</div></td></tr><tr><td style="font-weight:bold;vertical-align:top;">http_accept_encoding</td><td style="vertical-align:top;">:</td><td><div>gzip, deflate, sdch, br</div></td></tr><tr><td style="font-weight:bold;vertical-align:top;">http_accept_language</td><td style="vertical-align:top;">:</td><td><div>es,en;q=0.8</div></td></tr><tr><td style="font-weight:bold;vertical-align:top;">http_cache_control</td><td style="vertical-align:top;">:</td><td><div>max-age=0</div></td></tr><tr><td style="font-weight:bold;vertical-align:top;">http_connection</td><td style="vertical-align:top;">:</td><td><div>keep-alive</div></td></tr><tr><td style="font-weight:bold;vertical-align:top;">http_cookie</td><td style="vertical-align:top;">:</td><td><div>session_id_sigulab=127.0.0.1-2ba9d3d8-98e0-4800-95e2-186f09c250bb; session_id_admin=127.0.0.1-eb0584ef-b6d4-4547-b804-08344a0a845e</div></td></tr><tr><td style="font-weight:bold;vertical-align:top;">http_dnt</td><td style="vertical-align:top;">:</td><td><div>1</div></td></tr><tr><td style="font-weight:bold;vertical-align:top;">http_host</td><td style="vertical-align:top;">:</td><td><div>127.0.0.1:8000</div></td></tr><tr><td style="font-weight:bold;vertical-align:top;">http_referer</td><td style="vertical-align:top;">:</td><td><div>http://127.0.0.1:8000/gestion/autorizados/t_users_autorizados?_signature=724311e8341ffaebc1f629c478886c1b0e9eac1f</div></td></tr><tr><td style="font-weight:bold;vertical-align:top;">http_upgrade_insecure_requests</td><td style="vertical-align:top;">:</td><td><div>1</div></td></tr><tr><td style="font-weight:bold;vertical-align:top;">http_user_agent</td><td style="vertical-align:top;">:</td><td><div>Mozilla/5.0 (X11; Linux x86_64) AppleWebKit/537.36 (KHTML, like Gecko) Chrome/56.0.2924.87 Safari/537.36</div></td></tr><tr><td style="font-weight:bold;vertical-align:top;">is_jython</td><td style="vertical-align:top;">:</td><td><div>False</div></td></tr><tr><td style="font-weight:bold;vertical-align:top;">is_pypy</td><td style="vertical-align:top;">:</td><td><div>False</div></td></tr><tr><td style="font-weight:bold;vertical-align:top;">is_source</td><td style="vertical-align:top;">:</td><td><div>True</div></td></tr><tr><td style="font-weight:bold;vertical-align:top;">local_hosts</td><td style="vertical-align:top;">:</td><td><div><table><tr><td><div>127.0.1.1</div></td></tr><tr><td><div>::1</div></td></tr><tr><td><div>adolfo-PC</div></td></tr><tr><td><div>::ffff:127.0.0.1</div></td></tr><tr><td><div>127.0.0.1</div></td></tr></table></div></td></tr><tr><td style="font-weight:bold;vertical-align:top;">path_info</td><td style="vertical-align:top;">:</td><td><div>/gestion/autorizados/t_users_autorizados/edit/t_users_autorizados/1</div></td></tr><tr><td style="font-weight:bold;vertical-align:top;">query_string</td><td style="vertical-align:top;">:</td><td><div>_signature=40840651558a92ca5ce83684a44f757467154d65</div></td></tr><tr><td style="font-weight:bold;vertical-align:top;">remote_addr</td><td style="vertical-align:top;">:</td><td><div>127.0.0.1</div></td></tr><tr><td style="font-weight:bold;vertical-align:top;">remote_port</td><td style="vertical-align:top;">:</td><td><div>41235</div></td></tr><tr><td style="font-weight:bold;vertical-align:top;">request_method</td><td style="vertical-align:top;">:</td><td><div>GET</div></td></tr><tr><td style="font-weight:bold;vertical-align:top;">request_uri</td><td style="vertical-align:top;">:</td><td><div>/SIGULAB/gestion/autorizados/t_users_autorizados/edit/t_users_autorizados/1?_signature=40840651558a92ca5ce83684a44f757467154d65</div></td></tr><tr><td style="font-weight:bold;vertical-align:top;">script_name</td><td style="vertical-align:top;">:</td><td><div></div></td></tr><tr><td style="font-weight:bold;vertical-align:top;">server_name</td><td style="vertical-align:top;">:</td><td><div>adolfo-PC</div></td></tr><tr><td style="font-weight:bold;vertical-align:top;">server_port</td><td style="vertical-align:top;">:</td><td><div>8000</div></td></tr><tr><td style="font-weight:bold;vertical-align:top;">server_protocol</td><td style="vertical-align:top;">:</td><td><div>HTTP/1.1</div></td></tr><tr><td style="font-weight:bold;vertical-align:top;">server_software</td><td style="vertical-align:top;">:</td><td><div>Rocket 1.2.6</div></td></tr><tr><td style="font-weight:bold;vertical-align:top;">web2py_original_uri</td><td style="vertical-align:top;">:</td><td><div>/gestion/autorizados/t_users_autorizados/edit/t_users_autorizados/1?_signature=40840651558a92ca5ce83684a44f757467154d65</div></td></tr><tr><td style="font-weight:bold;vertical-align:top;">web2py_path</td><td style="vertical-align:top;">:</td><td><div>/home/adolfo/Desktop/PROYECTO ULAB</div></td></tr><tr><td style="font-weight:bold;vertical-align:top;">web2py_version</td><td style="vertical-align:top;">:</td><td><div>2.14.6-stable+timestamp.2016.05.10.00.21.47</div></td></tr><tr><td style="font-weight:bold;vertical-align:top;">wsgi.errors</td><td style="vertical-align:top;">:</td><td><div>&lt;open file &#x27;&lt;stderr&gt;&#x27;, mode &#x27;w&#x27; at 0x7f86c86b21e0&gt;</div></td></tr><tr><td style="font-weight:bold;vertical-align:top;">wsgi.file_wrapper</td><td style="vertical-align:top;">:</td><td><div>&lt;class wsgiref.util.FileWrapper at 0x7f86bd997120&gt;</div></td></tr><tr><td style="font-weight:bold;vertical-align:top;">wsgi.input</td><td style="vertical-align:top;">:</td><td><div>&lt;socket._fileobject object at 0x7f867f0ad350&gt;</div></td></tr><tr><td style="font-weight:bold;vertical-align:top;">wsgi.multiprocess</td><td style="vertical-align:top;">:</td><td><div>False</div></td></tr><tr><td style="font-weight:bold;vertical-align:top;">wsgi.multithread</td><td style="vertical-align:top;">:</td><td><div>True</div></td></tr><tr><td style="font-weight:bold;vertical-align:top;">wsgi.run_once</td><td style="vertical-align:top;">:</td><td><div>False</div></td></tr><tr><td style="font-weight:bold;vertical-align:top;">wsgi.url_scheme</td><td style="vertical-align:top;">:</td><td><div>http</div></td></tr><tr><td style="font-weight:bold;vertical-align:top;">wsgi.version</td><td style="vertical-align:top;">:</td><td><div><table><tr><td><div>1</div></td></tr><tr><td><div>0</div></td></tr></table></div></td></tr><tr><td style="font-weight:bold;vertical-align:top;">wsgi_errors</td><td style="vertical-align:top;">:</td><td><div>&lt;open file &#x27;&lt;stderr&gt;&#x27;, mode &#x27;w&#x27; at 0x7f86c86b21e0&gt;</div></td></tr><tr><td style="font-weight:bold;vertical-align:top;">wsgi_file_wrapper</td><td style="vertical-align:top;">:</td><td><div>&lt;class wsgiref.util.FileWrapper at 0x7f86bd997120&gt;</div></td></tr><tr><td style="font-weight:bold;vertical-align:top;">wsgi_input</td><td style="vertical-align:top;">:</td><td><div>&lt;socket._fileobject object at 0x7f867f0ad350&gt;</div></td></tr><tr><td style="font-weight:bold;vertical-align:top;">wsgi_multiprocess</td><td style="vertical-align:top;">:</td><td><div>False</div></td></tr><tr><td style="font-weight:bold;vertical-align:top;">wsgi_multithread</td><td style="vertical-align:top;">:</td><td><div>True</div></td></tr><tr><td style="font-weight:bold;vertical-align:top;">wsgi_run_once</td><td style="vertical-align:top;">:</td><td><div>False</div></td></tr><tr><td style="font-weight:bold;vertical-align:top;">wsgi_url_scheme</td><td style="vertical-align:top;">:</td><td><div>http</div></td></tr><tr><td style="font-weight:bold;vertical-align:top;">wsgi_version</td><td style="vertical-align:top;">:</td><td><div><table><tr><td><div>1</div></td></tr><tr><td><div>0</div></td></tr></table></div></td></tr></table></div></td></tr><tr><td style="font-weight:bold;vertical-align:top;">extension</td><td style="vertical-align:top;">:</td><td><div>html</div></td></tr><tr><td style="font-weight:bold;vertical-align:top;">folder</td><td style="vertical-align:top;">:</td><td><div>/home/adolfo/Desktop/PROYECTO ULAB/applications/SIGULAB/</div></td></tr><tr><td style="font-weight:bold;vertical-align:top;">function</td><td style="vertical-align:top;">:</td><td><div>autorizados</div></td></tr><tr><td style="font-weight:bold;vertical-align:top;">global_settings</td><td style="vertical-align:top;">:</td><td><div><table><tr><td style="font-weight:bold;vertical-align:top;">app_folders</td><td style="vertical-align:top;">:</td><td><div>set([&#x27;/home/adolfo/Desktop/PROYECTO ULAB/applications/admin/&#x27;, &#x27;/home/adolfo/Desktop/PROYECTO ULAB/applications/SIGULAB/&#x27;])</div></td></tr><tr><td style="font-weight:bold;vertical-align:top;">applications_parent</td><td style="vertical-align:top;">:</td><td><div>/home/adolfo/Desktop/PROYECTO ULAB</div></td></tr><tr><td style="font-weight:bold;vertical-align:top;">cmd_args</td><td style="vertical-align:top;">:</td><td><div><table></table></div></td></tr><tr><td style="font-weight:bold;vertical-align:top;">cmd_options</td><td style="vertical-align:top;">:</td><td><div>&lt;Values at 0x7f86bd8e6680: {&#x27;verbose&#x27;: False, &#x27;ip&#x27;: &#x27;127.0.0.1&#x27;, &#x27;debuglevel&#x27;: 30, &#x27;with_scheduler&#x27;: False, &#x27;shutdown_timeout&#x27;: 5, &#x27;taskbar&#x27;: False, &#x27;with_coverage&#x27;: False, &#x27;pid_filename&#x27;: &#x27;httpserver.pid&#x27;, &#x27;maxthreads&#x27;: None, &#x27;softcron&#x27;: False, &#x27;server_name&#x27;: &#x27;adolfo-PC&#x27;, &#x27;bpython&#x27;: False, &#x27;nogui&#x27;: False, &#x27;port&#x27;: 8000, &#x27;print_errors&#x27;: False, &#x27;extcron&#x27;: False, &#x27;runcron&#x27;: False, &#x27;run_system_tests&#x27;: False, &#x27;test&#x27;: None, &#x27;folder&#x27;: &#x27;/home/adolfo/Desktop/PROYECTO ULAB&#x27;, &#x27;config&#x27;: &#x27;&#x27;, &#x27;minthreads&#x27;: None, &#x27;shell&#x27;: None, &#x27;run&#x27;: &#x27;&#x27;, &#x27;log_filename&#x27;: &#x27;httpserver.log&#x27;, &#x27;profiler_dir&#x27;: None, &#x27;args&#x27;: [&#x27;&#x27;], &#x27;socket_timeout&#x27;: 5, &#x27;ssl_ca_certificate&#x27;: None, &#x27;scheduler&#x27;: None, &#x27;interfaces&#x27;: None, &#x27;ssl_private_key&#x27;: &#x27;&#x27;, &#x27;gae&#x27;: None, &#x27;password&#x27;: &#x27;******&#x27;, &#x27;request_queue_size&#x27;: 5, &#x27;ssl_certificate&#x27;: &#x27;&#x27;, &#x27;cronjob&#x27;: False, &#x27;numthreads&#x27;: None, &#x27;quiet&#x27;: False, &#x27;import_models&#x27;: False, &#x27;timeout&#x27;: 10, &#x27;plain&#x27;: False, &#x27;nobanner&#x27;: False}&gt;</div></td></tr><tr><td style="font-weight:bold;vertical-align:top;">db_sessions</td><td style="vertical-align:top;">:</td><td><div>set([])</div></td></tr><tr><td style="font-weight:bold;vertical-align:top;">debugging</td><td style="vertical-align:top;">:</td><td><div>False</div></td></tr><tr><td style="font-weight:bold;vertical-align:top;">gluon_parent</td><td style="vertical-align:top;">:</td><td><div>/home/adolfo/Desktop/PROYECTO ULAB</div></td></tr><tr><td style="font-weight:bold;vertical-align:top;">is_jython</td><td style="vertical-align:top;">:</td><td><div>False</div></td></tr><tr><td style="font-weight:bold;vertical-align:top;">is_pypy</td><td style="vertical-align:top;">:</td><td><div>False</div></td></tr><tr><td style="font-weight:bold;vertical-align:top;">is_source</td><td style="vertical-align:top;">:</td><td><div>True</div></td></tr><tr><td style="font-weight:bold;vertical-align:top;">local_hosts</td><td style="vertical-align:top;">:</td><td><div><table><tr><td><div>127.0.1.1</div></td></tr><tr><td><div>::1</div></td></tr><tr><td><div>adolfo-PC</div></td></tr><tr><td><div>::ffff:127.0.0.1</div></td></tr><tr><td><div>127.0.0.1</div></td></tr></table></div></td></tr><tr><td style="font-weight:bold;vertical-align:top;">web2py_version</td><td style="vertical-align:top;">:</td><td><div>2.14.6-stable+timestamp.2016.05.10.00.21.47</div></td></tr></table></div></td></tr><tr><td style="font-weight:bold;vertical-align:top;">is_https</td><td style="vertical-align:top;">:</td><td><div>False</div></td></tr><tr><td style="font-weight:bold;vertical-align:top;">is_local</td><td style="vertical-align:top;">:</td><td><div>True</div></td></tr><tr><td style="font-weight:bold;vertical-align:top;">is_restful</td><td style="vertical-align:top;">:</td><td><div>False</div></td></tr><tr><td style="font-weight:bold;vertical-align:top;">is_scheduler</td><td style="vertical-align:top;">:</td><td><div>False</div></td></tr><tr><td style="font-weight:bold;vertical-align:top;">is_shell</td><td style="vertical-align:top;">:</td><td><div>False</div></td></tr><tr><td style="font-weight:bold;vertical-align:top;">now</td><td style="vertical-align:top;">:</td><td><div>datetime.datetime(2017, 2, 10, 21, 56, 22, 897931)</div></td></tr><tr><td style="font-weight:bold;vertical-align:top;">url</td><td style="vertical-align:top;">:</td><td><div>/gestion/autorizados/t_users_autorizados/edit/t_users_autorizados/1</div></td></tr><tr><td style="font-weight:bold;vertical-align:top;">utcnow</td><td style="vertical-align:top;">:</td><td><div>datetime.datetime(2017, 2, 11, 1, 56, 22, 898000)</div></td></tr><tr><td style="font-weight:bold;vertical-align:top;">wsgi</td><td style="vertical-align:top;">:</td><td><div>&lt;gluon.main.LazyWSGI object at 0x7f867e8eebd0&gt;</div></td></tr></table></div>'
tRp70
sS'frames'
p71
(lp72
(dp73
S'file'
p74
S'/home/adolfo/Desktop/PROYECTO ULAB/gluon/restricted.py'
p75
sS'dump'
p76
(dp77
S'code'
p78
S'"### we prepend t_ to tablenames and f_ to fieldn...nce t_solicitud\',readable=False,writable=False))\\n"'
p79
sS'layer'
p80
S"'/home/adolfo/Desktop/PROYECTO ULAB/applications/SIGULAB/models/tablas_base.py'"
p81
sS'global compile2'
p82
S'<function compile2>'
p83
sS'ccode'
p84
S'undefined'
p85
ssS'lnum'
p86
I226
sS'lines'
p87
(dp88
I224
S'            ccode = code'
p89
sI225
S'        else:'
p90
sI226
S'            ccode = compile2(code, layer)'
p91
sI227
S'        exec ccode in environment'
p92
sI228
S'    except HTTP:'
p93
sI229
S'        raise'
p94
sI230
S'    except RestrictedError:'
p95
sI221
S"    environment['__name__'] = '__restricted__'"
p96
sI222
S'    try:'
p97
sI223
S'        if isinstance(code, types.CodeType):'
p98
ssS'call'
p99
S'(code="### we prepend t_ to tablenames and f_ to fieldn...nce t_solicitud\',readable=False,writable=False))\\n", environment={\'A\': <class \'gluon.html.A\'>, \'ANY_OF\': <class \'gluon.validators.ANY_OF\'>, \'ASSIGNJS\': <function ASSIGNJS>, \'AppConfig\': <function AppConfig>, \'Auth\': <class \'gluon.tools.Auth\'>, \'B\': <class \'gluon.html.B\'>, \'BEAUTIFY\': <class \'gluon.html.BEAUTIFY\'>, \'BODY\': <class \'gluon.html.BODY\'>, \'BR\': <class \'gluon.html.BR\'>, \'BUTTON\': <class \'gluon.html.BUTTON\'>, ...}, layer=\'/home/adolfo/Desktop/PROYECTO ULAB/applications/SIGULAB/models/tablas_base.py\')'
p100
sS'func'
p101
S'restricted'
p102
sa(dp103
g74
S'/home/adolfo/Desktop/PROYECTO ULAB/gluon/restricted.py'
p104
sg76
(dp105
S'builtincompile'
p106
S'<built-in function compile>'
p107
sS'code'
p108
S'"### we prepend t_ to tablenames and f_ to fieldn...nce t_solicitud\',readable=False,writable=False))\\n"'
p109
sS'code.rstrip'
p110
S'<built-in method rstrip of str object>'
p111
sS').replace'
p112
g85
sS'layer'
p113
S"'/home/adolfo/Desktop/PROYECTO ULAB/applications/SIGULAB/models/tablas_base.py'"
p114
ssg86
I209
sg87
(dp115
I204
S'def compile2(code, layer):'
p116
sI205
S'    """'
p117
sI206
S"    The ``+'\\\\n'`` is necessary else compile fails when code ends in a comment."
p118
sI207
S'    """'
p119
sI208
S''
sI209
S"    return compile(code.rstrip().replace('\\r\\n', '\\n') + '\\n', layer, 'exec')"
p120
sI210
S''
sI211
S''
sI212
S"def restricted(code, environment=None, layer='Unknown'):"
p121
sI213
S'    """'
p122
ssg99
S'(code="### we prepend t_ to tablenames and f_ to fieldn...nce t_solicitud\',readable=False,writable=False))\\n", layer=\'/home/adolfo/Desktop/PROYECTO ULAB/applications/SIGULAB/models/tablas_base.py\')'
p123
sg101
S'compile2'
p124
sasS'pyver'
p125
S'Python 2.7.12: /usr/bin/python (prefix: /usr)'
p126
sS'session'
p127
g69
(S's\x12\n\x00\x00<div><table><tr><td style="font-weight:bold;vertical-align:top;">auth</td><td style="vertical-align:top;">:</td><td><div><table><tr><td style="font-weight:bold;vertical-align:top;">expiration</td><td style="vertical-align:top;">:</td><td><div>3600</div></td></tr><tr><td style="font-weight:bold;vertical-align:top;">hmac_key</td><td style="vertical-align:top;">:</td><td><div>90607456-4c8d-4533-a5b8-e39bd8e0992d</div></td></tr><tr><td style="font-weight:bold;vertical-align:top;">last_visit</td><td style="vertical-align:top;">:</td><td><div>datetime.datetime(2017, 2, 10, 21, 50, 27, 891798)</div></td></tr><tr><td style="font-weight:bold;vertical-align:top;">remember_me</td><td style="vertical-align:top;">:</td><td><div>False</div></td></tr><tr><td style="font-weight:bold;vertical-align:top;">user</td><td style="vertical-align:top;">:</td><td><div><table><tr><td style="font-weight:bold;vertical-align:top;">email</td><td style="vertical-align:top;">:</td><td><div>webmaster@sigulab.com</div></td></tr><tr><td style="font-weight:bold;vertical-align:top;">first_name</td><td style="vertical-align:top;">:</td><td><div>Super</div></td></tr><tr><td style="font-weight:bold;vertical-align:top;">id</td><td style="vertical-align:top;">:</td><td><div>8L</div></td></tr><tr><td style="font-weight:bold;vertical-align:top;">last_name</td><td style="vertical-align:top;">:</td><td><div>Usuario</div></td></tr><tr><td style="font-weight:bold;vertical-align:top;">registration_id</td><td style="vertical-align:top;">:</td><td><div></div></td></tr><tr><td style="font-weight:bold;vertical-align:top;">registration_key</td><td style="vertical-align:top;">:</td><td><div></div></td></tr><tr><td style="font-weight:bold;vertical-align:top;">reset_password_key</td><td style="vertical-align:top;">:</td><td><div></div></td></tr></table></div></td></tr><tr><td style="font-weight:bold;vertical-align:top;">user_groups</td><td style="vertical-align:top;">:</td><td><div><table><tr><td style="font-weight:bold;vertical-align:top;">20</td><td style="vertical-align:top;">:</td><td><div>WebMaster</div></td></tr></table></div></td></tr></table></div></td></tr><tr><td style="font-weight:bold;vertical-align:top;">flash</td><td style="vertical-align:top;">:</td><td><div>None</div></td></tr><tr><td style="font-weight:bold;vertical-align:top;">last_orderby</td><td style="vertical-align:top;">:</td><td><div>None</div></td></tr><tr><td style="font-weight:bold;vertical-align:top;">last_query</td><td style="vertical-align:top;">:</td><td><div>db.auth_user.id&gt;0</div></td></tr></table></div>'
tRp128
sS'etype'
p129
S"<type 'exceptions.SyntaxError'>"
p130
sS'date'
p131
S'Fri Feb 10 21:56:23 2017'
p132
sS'response'
p133
g69
(S's^%\x00\x00<div><table><tr><td style="font-weight:bold;vertical-align:top;">body</td><td style="vertical-align:top;">:</td><td><div>&lt;cStringIO.StringO object at 0x7f867f457500&gt;</div></td></tr><tr><td style="font-weight:bold;vertical-align:top;">cookies</td><td style="vertical-align:top;">:</td><td><div><table><tr><td style="font-weight:bold;vertical-align:top;">session_id_sigulab</td><td style="vertical-align:top;">:</td><td><div>127.0.0.1-2ba9d3d8-98e0-4800-95e2-186f09c250bb<table><tr><td style="font-weight:bold;vertical-align:top;">comment</td><td style="vertical-align:top;">:</td><td><div></div></td></tr><tr><td style="font-weight:bold;vertical-align:top;">domain</td><td style="vertical-align:top;">:</td><td><div></div></td></tr><tr><td style="font-weight:bold;vertical-align:top;">expires</td><td style="vertical-align:top;">:</td><td><div></div></td></tr><tr><td style="font-weight:bold;vertical-align:top;">httponly</td><td style="vertical-align:top;">:</td><td><div></div></td></tr><tr><td style="font-weight:bold;vertical-align:top;">max-age</td><td style="vertical-align:top;">:</td><td><div></div></td></tr><tr><td style="font-weight:bold;vertical-align:top;">path</td><td style="vertical-align:top;">:</td><td><div>/</div></td></tr><tr><td style="font-weight:bold;vertical-align:top;">secure</td><td style="vertical-align:top;">:</td><td><div></div></td></tr><tr><td style="font-weight:bold;vertical-align:top;">version</td><td style="vertical-align:top;">:</td><td><div></div></td></tr></table></div></td></tr></table></div></td></tr><tr><td style="font-weight:bold;vertical-align:top;">delimiters</td><td style="vertical-align:top;">:</td><td><div><table><tr><td><div>{{</div></td></tr><tr><td><div>}}</div></td></tr></table></div></td></tr><tr><td style="font-weight:bold;vertical-align:top;">files</td><td style="vertical-align:top;">:</td><td><div><table></table></div></td></tr><tr><td style="font-weight:bold;vertical-align:top;">flash</td><td style="vertical-align:top;">:</td><td><div></div></td></tr><tr><td style="font-weight:bold;vertical-align:top;">form_label_separator</td><td style="vertical-align:top;">:</td><td><div></div></td></tr><tr><td style="font-weight:bold;vertical-align:top;">formstyle</td><td style="vertical-align:top;">:</td><td><div>bootstrap3_inline</div></td></tr><tr><td style="font-weight:bold;vertical-align:top;">generic_patterns</td><td style="vertical-align:top;">:</td><td><div><table><tr><td><div>*</div></td></tr></table></div></td></tr><tr><td style="font-weight:bold;vertical-align:top;">headers</td><td style="vertical-align:top;">:</td><td><div><table><tr><td style="font-weight:bold;vertical-align:top;">X-Powered-By</td><td style="vertical-align:top;">:</td><td><div>web2py</div></td></tr></table></div></td></tr><tr><td style="font-weight:bold;vertical-align:top;">menu</td><td style="vertical-align:top;">:</td><td><div><table><tr><td><div><table><tr><td><div>Inicio</div></td></tr><tr><td><div>False</div></td></tr><tr><td><div>/</div></td></tr><tr><td><div><table></table></div></td></tr></table></div></td></tr><tr><td><div><table><tr><td><div>SMyDP</div></td></tr><tr><td><div>False</div></td></tr><tr><td><div>None</div></td></tr><tr><td><div><table><tr><td><div><table><tr><td><div>Inventario</div></td></tr><tr><td><div>/sustancias/select_inventario</div></td></tr><tr><td><div>/sustancias/select_inventario</div></td></tr></table></div></td></tr><tr><td><div><table><tr><td><div>Listado de Sustancias</div></td></tr><tr><td><div>/sustancias/sustanciapeligrosa_manage</div></td></tr><tr><td><div>/sustancias/sustanciapeligrosa_manage</div></td></tr></table></div></td></tr></table></div></td></tr></table></div></td></tr><tr><td><div><table><tr><td><div>Solicitudes</div></td></tr><tr><td><div>False</div></td></tr><tr><td><div>None</div></td></tr><tr><td><div><table><tr><td><div><table><tr><td><div>Entrada</div></td></tr><tr><td><div>/s_entrada/entrada</div></td></tr><tr><td><div>/s_entrada/entrada</div></td></tr></table></div></td></tr><tr><td><div><table><tr><td><div>Salida</div></td></tr><tr><td><div>/s_entrada/salida</div></td></tr><tr><td><div>/s_entrada/salida</div></td></tr></table></div></td></tr></table></div></td></tr></table></div></td></tr><tr><td><div><table><tr><td><div>Prestamos</div></td></tr><tr><td><div>False</div></td></tr><tr><td><div>None</div></td></tr><tr><td><div><table><tr><td><div><table><tr><td><div>Por devolver</div></td></tr><tr><td><div>/s_entrada/p_por_devolver</div></td></tr><tr><td><div>/s_entrada/p_por_devolver</div></td></tr></table></div></td></tr><tr><td><div><table><tr><td><div>Por recibir</div></td></tr><tr><td><div>/s_entrada/p_por_recibir</div></td></tr><tr><td><div>/s_entrada/p_por_recibir</div></td></tr></table></div></td></tr></table></div></td></tr></table></div></td></tr><tr><td><div><table><tr><td><div>Gesti\xc3\xb3n</div></td></tr><tr><td><div>False</div></td></tr><tr><td><div>None</div></td></tr><tr><td><div><table><tr><td><div><table><tr><td><div>Usuarios Registrados</div></td></tr><tr><td><div>/gestion/usuarios</div></td></tr><tr><td><div>/gestion/usuarios</div></td></tr></table></div></td></tr><tr><td><div><table><tr><td><div>Usuarios Autorizados</div></td></tr><tr><td><div>/gestion/autorizados</div></td></tr><tr><td><div>/gestion/autorizados</div></td></tr></table></div></td></tr><tr><td><div><table><tr><td><div>Privilegios</div></td></tr><tr><td><div>/gestion/privilegios</div></td></tr><tr><td><div>/gestion/privilegios</div></td></tr></table></div></td></tr></table></div></td></tr></table></div></td></tr><tr><td><div><table><tr><td><div>Editar</div></td></tr><tr><td><div>False</div></td></tr><tr><td><div>/admin/design/SIGULAB</div></td></tr></table></div></td></tr></table></div></td></tr><tr><td style="font-weight:bold;vertical-align:top;">meta</td><td style="vertical-align:top;">:</td><td><div><table><tr><td style="font-weight:bold;vertical-align:top;">author</td><td style="vertical-align:top;">:</td><td><div>you &lt;you@example.com&gt;</div></td></tr><tr><td style="font-weight:bold;vertical-align:top;">description</td><td style="vertical-align:top;">:</td><td><div></div></td></tr><tr><td style="font-weight:bold;vertical-align:top;">keywords</td><td style="vertical-align:top;">:</td><td><div></div></td></tr></table></div></td></tr><tr><td style="font-weight:bold;vertical-align:top;">models_to_run</td><td style="vertical-align:top;">:</td><td><div><table><tr><td><div>^\\w+\\.py$</div></td></tr><tr><td><div>^gestion/\\w+\\.py$</div></td></tr><tr><td><div>^gestion/autorizados/\\w+\\.py$</div></td></tr></table></div></td></tr><tr><td style="font-weight:bold;vertical-align:top;">postprocessing</td><td style="vertical-align:top;">:</td><td><div><table></table></div></td></tr><tr><td style="font-weight:bold;vertical-align:top;">session_client</td><td style="vertical-align:top;">:</td><td><div>127.0.0.1</div></td></tr><tr><td style="font-weight:bold;vertical-align:top;">session_cookie_compression_level</td><td style="vertical-align:top;">:</td><td><div>None</div></td></tr><tr><td style="font-weight:bold;vertical-align:top;">session_cookie_expires</td><td style="vertical-align:top;">:</td><td><div>None</div></td></tr><tr><td style="font-weight:bold;vertical-align:top;">session_data_name</td><td style="vertical-align:top;">:</td><td><div>session_data_sigulab</div></td></tr><tr><td style="font-weight:bold;vertical-align:top;">session_file</td><td style="vertical-align:top;">:</td><td><div>&lt;open file &#x27;/home/adolfo/Desktop/PROYECTO ULAB/applications/SIGULAB/sessions/1ff/01d/127.0.0.1-2ba9d3d8-98e0-4800-95e2-186f09c250bb&#x27;, mode &#x27;rb+&#x27; at 0x7f867e7fc030&gt;</div></td></tr><tr><td style="font-weight:bold;vertical-align:top;">session_filename</td><td style="vertical-align:top;">:</td><td><div>/home/adolfo/Desktop/PROYECTO ULAB/applications/SIGULAB/sessions/127.0.0.1-2ba9d3d8-98e0-4800-95e2-186f09c250bb</div></td></tr><tr><td style="font-weight:bold;vertical-align:top;">session_hash</td><td style="vertical-align:top;">:</td><td><div>b9aca1ffa03e3c441d2c775d291b2ebb</div></td></tr><tr><td style="font-weight:bold;vertical-align:top;">session_id</td><td style="vertical-align:top;">:</td><td><div>127.0.0.1-2ba9d3d8-98e0-4800-95e2-186f09c250bb</div></td></tr><tr><td style="font-weight:bold;vertical-align:top;">session_id_name</td><td style="vertical-align:top;">:</td><td><div>session_id_sigulab</div></td></tr><tr><td style="font-weight:bold;vertical-align:top;">session_locked</td><td style="vertical-align:top;">:</td><td><div>True</div></td></tr><tr><td style="font-weight:bold;vertical-align:top;">session_masterapp</td><td style="vertical-align:top;">:</td><td><div>SIGULAB</div></td></tr><tr><td style="font-weight:bold;vertical-align:top;">session_new</td><td style="vertical-align:top;">:</td><td><div>False</div></td></tr><tr><td style="font-weight:bold;vertical-align:top;">session_storage_type</td><td style="vertical-align:top;">:</td><td><div>file</div></td></tr><tr><td style="font-weight:bold;vertical-align:top;">status</td><td style="vertical-align:top;">:</td><td><div>200</div></td></tr><tr><td style="font-weight:bold;vertical-align:top;">subtitle</td><td style="vertical-align:top;">:</td><td><div>Equipo</div></td></tr><tr><td style="font-weight:bold;vertical-align:top;">title</td><td style="vertical-align:top;">:</td><td><div>Sistema De Gesti\xc3\xb3n ULAB - USB</div></td></tr><tr><td style="font-weight:bold;vertical-align:top;">view</td><td style="vertical-align:top;">:</td><td><div>gestion/autorizados.html</div></td></tr></table></div>'
tRp134
sS'locals'
p135
(dp136
g4
S"'/home/adolfo/Desktop/PROYECTO ULAB/applications/SIGULAB/models/tablas_base.py'"
p137
sg6
S'"### we prepend t_ to tablenames and f_ to fieldn...nce t_solicitud\',readable=False,writable=False))\\n"'
p138
sssS'traceback'
p139
S'Traceback (most recent call last):\n  File "/home/adolfo/Desktop/PROYECTO ULAB/gluon/restricted.py", line 226, in restricted\n    ccode = compile2(code, layer)\n  File "/home/adolfo/Desktop/PROYECTO ULAB/gluon/restricted.py", line 209, in compile2\n    return compile(code.rstrip().replace(\'\\r\\n\', \'\\n\') + \'\\n\', layer, \'exec\')\n  File "/home/adolfo/Desktop/PROYECTO ULAB/applications/SIGULAB/models/tablas_base.py", line 41\n    Field(\'f_group\', \'string\', label=T(\'Privilegio\'), requires=IS_IN_DB(db, db.auth_group.id), \'%(role)s\'))\nSyntaxError: non-keyword arg after keyword arg\n'
p140
s.