(dp1
S'output'
p2
S"<type 'exceptions.KeyError'> 'f_nombre'"
p3
sS'layer'
p4
S'/home/adolfo/Desktop/PROYECTO ULAB/applications/SIGULAB/controllers/default.py'
p5
sS'code'
p6
S'# -*- coding: utf-8 -*-\n### required - do no delete\ndef user(): return dict(form=auth())\ndef download(): return response.download(request,db)\ndef call(): return service()\n### end requires\ndef index():\n    return dict()\n\ndef error():\n    return dict()\n@auth.requires_login()\ndef sustancia_manage():\n    return dict()\n@auth.requires_login()\ndef secciones_manage():\n    return dict()\n@auth.requires_login()\ndef laboratorio_manage():\n    form = SQLFORM.smartgrid(db.t_laboratorio,onupdate=auth.archive)\n    return locals()\n@auth.requires_login()\ndef bitacora_manage():\n    form = SQLFORM.smartgrid(db.t_bitacora,onupdate=auth.archive)\n    return locals()\n@auth.requires_login()\ndef solicitudes_manage():\n    return dict()\n@auth.requires_login()\ndef solicitud_manage():\n    form = SQLFORM.smartgrid(db.t_solicitud,onupdate=auth.archive)\n    return locals()\n\nresponse._vars=response._caller(user)\n'
p7
sS'snapshot'
p8
(dp9
S'exception'
p10
(dp11
S'__hash__'
p12
S"<method-wrapper '__hash__' of exceptions.KeyError object>"
p13
sS'__setattr__'
p14
S"<method-wrapper '__setattr__' of exceptions.KeyError object>"
p15
sS'__reduce_ex__'
p16
S'<built-in method __reduce_ex__ of exceptions.KeyError object>'
p17
sS'__getslice__'
p18
S"<method-wrapper '__getslice__' of exceptions.KeyError object>"
p19
sS'__getitem__'
p20
S"<method-wrapper '__getitem__' of exceptions.KeyError object>"
p21
sS'__setstate__'
p22
S'<built-in method __setstate__ of exceptions.KeyError object>'
p23
sS'args'
p24
S"('f_nombre',)"
p25
sS'__reduce__'
p26
S'<built-in method __reduce__ of exceptions.KeyError object>'
p27
sS'__str__'
p28
S"<method-wrapper '__str__' of exceptions.KeyError object>"
p29
sS'__format__'
p30
S'<built-in method __format__ of exceptions.KeyError object>'
p31
sS'__getattribute__'
p32
S"<method-wrapper '__getattribute__' of exceptions.KeyError object>"
p33
sS'__class__'
p34
S"<type 'exceptions.KeyError'>"
p35
sS'__unicode__'
p36
S'<built-in method __unicode__ of exceptions.KeyError object>'
p37
sS'__delattr__'
p38
S"<method-wrapper '__delattr__' of exceptions.KeyError object>"
p39
sS'__subclasshook__'
p40
S'<built-in method __subclasshook__ of type object>'
p41
sS'__repr__'
p42
S"<method-wrapper '__repr__' of exceptions.KeyError object>"
p43
sS'__dict__'
p44
S'{}'
p45
sS'__sizeof__'
p46
S'<built-in method __sizeof__ of exceptions.KeyError object>'
p47
sS'__doc__'
p48
S"'Mapping key not found.'"
p49
sS'__init__'
p50
S"<method-wrapper '__init__' of exceptions.KeyError object>"
p51
sS'__new__'
p52
S'<built-in method __new__ of type object>'
p53
ssS'evalue'
p54
S"'f_nombre'"
p55
sS'request'
p56
cgluon.html
XML_unpickle
p57
(S's"X\x00\x00<div><table><tr><td style="font-weight:bold;vertical-align:top;">ajax</td><td style="vertical-align:top;">:</td><td><div>False</div></td></tr><tr><td style="font-weight:bold;vertical-align:top;">application</td><td style="vertical-align:top;">:</td><td><div>SIGULAB</div></td></tr><tr><td style="font-weight:bold;vertical-align:top;">args</td><td style="vertical-align:top;">:</td><td><div><table><tr><td><div>register</div></td></tr></table></div></td></tr><tr><td style="font-weight:bold;vertical-align:top;">cid</td><td style="vertical-align:top;">:</td><td><div>None</div></td></tr><tr><td style="font-weight:bold;vertical-align:top;">client</td><td style="vertical-align:top;">:</td><td><div>127.0.0.1</div></td></tr><tr><td style="font-weight:bold;vertical-align:top;">controller</td><td style="vertical-align:top;">:</td><td><div>default</div></td></tr><tr><td style="font-weight:bold;vertical-align:top;">cookies</td><td style="vertical-align:top;">:</td><td><div><table><tr><td style="font-weight:bold;vertical-align:top;">session_id_admin</td><td style="vertical-align:top;">:</td><td><div>127.0.0.1-eb0584ef-b6d4-4547-b804-08344a0a845e<table><tr><td style="font-weight:bold;vertical-align:top;">comment</td><td style="vertical-align:top;">:</td><td><div></div></td></tr><tr><td style="font-weight:bold;vertical-align:top;">domain</td><td style="vertical-align:top;">:</td><td><div></div></td></tr><tr><td style="font-weight:bold;vertical-align:top;">expires</td><td style="vertical-align:top;">:</td><td><div></div></td></tr><tr><td style="font-weight:bold;vertical-align:top;">httponly</td><td style="vertical-align:top;">:</td><td><div></div></td></tr><tr><td style="font-weight:bold;vertical-align:top;">max-age</td><td style="vertical-align:top;">:</td><td><div></div></td></tr><tr><td style="font-weight:bold;vertical-align:top;">path</td><td style="vertical-align:top;">:</td><td><div></div></td></tr><tr><td style="font-weight:bold;vertical-align:top;">secure</td><td style="vertical-align:top;">:</td><td><div></div></td></tr><tr><td style="font-weight:bold;vertical-align:top;">version</td><td style="vertical-align:top;">:</td><td><div></div></td></tr></table></div></td></tr><tr><td style="font-weight:bold;vertical-align:top;">session_id_sigulab</td><td style="vertical-align:top;">:</td><td><div>127.0.0.1-0899b1a3-cc34-4ba0-a38c-a7345df10835<table><tr><td style="font-weight:bold;vertical-align:top;">comment</td><td style="vertical-align:top;">:</td><td><div></div></td></tr><tr><td style="font-weight:bold;vertical-align:top;">domain</td><td style="vertical-align:top;">:</td><td><div></div></td></tr><tr><td style="font-weight:bold;vertical-align:top;">expires</td><td style="vertical-align:top;">:</td><td><div></div></td></tr><tr><td style="font-weight:bold;vertical-align:top;">httponly</td><td style="vertical-align:top;">:</td><td><div></div></td></tr><tr><td style="font-weight:bold;vertical-align:top;">max-age</td><td style="vertical-align:top;">:</td><td><div></div></td></tr><tr><td style="font-weight:bold;vertical-align:top;">path</td><td style="vertical-align:top;">:</td><td><div></div></td></tr><tr><td style="font-weight:bold;vertical-align:top;">secure</td><td style="vertical-align:top;">:</td><td><div></div></td></tr><tr><td style="font-weight:bold;vertical-align:top;">version</td><td style="vertical-align:top;">:</td><td><div></div></td></tr></table></div></td></tr></table></div></td></tr><tr><td style="font-weight:bold;vertical-align:top;">env</td><td style="vertical-align:top;">:</td><td><div><table><tr><td style="font-weight:bold;vertical-align:top;">HTTP_ACCEPT</td><td style="vertical-align:top;">:</td><td><div>text/html,application/xhtml+xml,application/xml;q=0.9,image/webp,*/*;q=0.8</div></td></tr><tr><td style="font-weight:bold;vertical-align:top;">HTTP_ACCEPT_ENCODING</td><td style="vertical-align:top;">:</td><td><div>gzip, deflate, sdch, br</div></td></tr><tr><td style="font-weight:bold;vertical-align:top;">HTTP_ACCEPT_LANGUAGE</td><td style="vertical-align:top;">:</td><td><div>es,en;q=0.8</div></td></tr><tr><td style="font-weight:bold;vertical-align:top;">HTTP_CACHE_CONTROL</td><td style="vertical-align:top;">:</td><td><div>max-age=0</div></td></tr><tr><td style="font-weight:bold;vertical-align:top;">HTTP_CONNECTION</td><td style="vertical-align:top;">:</td><td><div>keep-alive</div></td></tr><tr><td style="font-weight:bold;vertical-align:top;">HTTP_COOKIE</td><td style="vertical-align:top;">:</td><td><div>session_id_sigulab=127.0.0.1-0899b1a3-cc34-4ba0-a38c-a7345df10835; session_id_admin=127.0.0.1-eb0584ef-b6d4-4547-b804-08344a0a845e</div></td></tr><tr><td style="font-weight:bold;vertical-align:top;">HTTP_DNT</td><td style="vertical-align:top;">:</td><td><div>1</div></td></tr><tr><td style="font-weight:bold;vertical-align:top;">HTTP_HOST</td><td style="vertical-align:top;">:</td><td><div>127.0.0.1:8000</div></td></tr><tr><td style="font-weight:bold;vertical-align:top;">HTTP_REFERER</td><td style="vertical-align:top;">:</td><td><div>http://127.0.0.1:8000/user/login?_next=/front_page</div></td></tr><tr><td style="font-weight:bold;vertical-align:top;">HTTP_UPGRADE_INSECURE_REQUESTS</td><td style="vertical-align:top;">:</td><td><div>1</div></td></tr><tr><td style="font-weight:bold;vertical-align:top;">HTTP_USER_AGENT</td><td style="vertical-align:top;">:</td><td><div>Mozilla/5.0 (X11; Linux x86_64) AppleWebKit/537.36 (KHTML, like Gecko) Chrome/56.0.2924.87 Safari/537.36</div></td></tr><tr><td style="font-weight:bold;vertical-align:top;">PATH_INFO</td><td style="vertical-align:top;">:</td><td><div>/user/register</div></td></tr><tr><td style="font-weight:bold;vertical-align:top;">QUERY_STRING</td><td style="vertical-align:top;">:</td><td><div>_next=%2Ffront_page</div></td></tr><tr><td style="font-weight:bold;vertical-align:top;">REMOTE_ADDR</td><td style="vertical-align:top;">:</td><td><div>127.0.0.1</div></td></tr><tr><td style="font-weight:bold;vertical-align:top;">REMOTE_PORT</td><td style="vertical-align:top;">:</td><td><div>57373</div></td></tr><tr><td style="font-weight:bold;vertical-align:top;">REQUEST_METHOD</td><td style="vertical-align:top;">:</td><td><div>GET</div></td></tr><tr><td style="font-weight:bold;vertical-align:top;">SCRIPT_NAME</td><td style="vertical-align:top;">:</td><td><div></div></td></tr><tr><td style="font-weight:bold;vertical-align:top;">SERVER_NAME</td><td style="vertical-align:top;">:</td><td><div>adolfo-PC</div></td></tr><tr><td style="font-weight:bold;vertical-align:top;">SERVER_PORT</td><td style="vertical-align:top;">:</td><td><div>8000</div></td></tr><tr><td style="font-weight:bold;vertical-align:top;">SERVER_PROTOCOL</td><td style="vertical-align:top;">:</td><td><div>HTTP/1.1</div></td></tr><tr><td style="font-weight:bold;vertical-align:top;">SERVER_SOFTWARE</td><td style="vertical-align:top;">:</td><td><div>Rocket 1.2.6</div></td></tr><tr><td style="font-weight:bold;vertical-align:top;">app_folders</td><td style="vertical-align:top;">:</td><td><div>set([&#x27;/home/adolfo/Desktop/PROYECTO ULAB/applications/admin/&#x27;, &#x27;/home/adolfo/Desktop/PROYECTO ULAB/applications/SIGULAB/&#x27;])</div></td></tr><tr><td style="font-weight:bold;vertical-align:top;">applications_parent</td><td style="vertical-align:top;">:</td><td><div>/home/adolfo/Desktop/PROYECTO ULAB</div></td></tr><tr><td style="font-weight:bold;vertical-align:top;">cmd_args</td><td style="vertical-align:top;">:</td><td><div><table></table></div></td></tr><tr><td style="font-weight:bold;vertical-align:top;">cmd_options</td><td style="vertical-align:top;">:</td><td><div>&lt;Values at 0x7fddec99a680: {&#x27;verbose&#x27;: False, &#x27;ip&#x27;: &#x27;127.0.0.1&#x27;, &#x27;debuglevel&#x27;: 30, &#x27;with_scheduler&#x27;: False, &#x27;shutdown_timeout&#x27;: 5, &#x27;taskbar&#x27;: False, &#x27;with_coverage&#x27;: False, &#x27;pid_filename&#x27;: &#x27;httpserver.pid&#x27;, &#x27;maxthreads&#x27;: None, &#x27;softcron&#x27;: False, &#x27;server_name&#x27;: &#x27;adolfo-PC&#x27;, &#x27;bpython&#x27;: False, &#x27;nogui&#x27;: False, &#x27;port&#x27;: 8000, &#x27;print_errors&#x27;: False, &#x27;extcron&#x27;: False, &#x27;runcron&#x27;: False, &#x27;run_system_tests&#x27;: False, &#x27;test&#x27;: None, &#x27;folder&#x27;: &#x27;/home/adolfo/Desktop/PROYECTO ULAB&#x27;, &#x27;config&#x27;: &#x27;&#x27;, &#x27;minthreads&#x27;: None, &#x27;shell&#x27;: None, &#x27;run&#x27;: &#x27;&#x27;, &#x27;log_filename&#x27;: &#x27;httpserver.log&#x27;, &#x27;profiler_dir&#x27;: None, &#x27;args&#x27;: [&#x27;&#x27;], &#x27;socket_timeout&#x27;: 5, &#x27;ssl_ca_certificate&#x27;: None, &#x27;scheduler&#x27;: None, &#x27;interfaces&#x27;: None, &#x27;ssl_private_key&#x27;: &#x27;&#x27;, &#x27;gae&#x27;: None, &#x27;password&#x27;: &#x27;******&#x27;, &#x27;request_queue_size&#x27;: 5, &#x27;ssl_certificate&#x27;: &#x27;&#x27;, &#x27;cronjob&#x27;: False, &#x27;numthreads&#x27;: None, &#x27;quiet&#x27;: False, &#x27;import_models&#x27;: False, &#x27;timeout&#x27;: 10, &#x27;plain&#x27;: False, &#x27;nobanner&#x27;: False}&gt;</div></td></tr><tr><td style="font-weight:bold;vertical-align:top;">db_sessions</td><td style="vertical-align:top;">:</td><td><div>set([])</div></td></tr><tr><td style="font-weight:bold;vertical-align:top;">debugging</td><td style="vertical-align:top;">:</td><td><div>False</div></td></tr><tr><td style="font-weight:bold;vertical-align:top;">gluon_parent</td><td style="vertical-align:top;">:</td><td><div>/home/adolfo/Desktop/PROYECTO ULAB</div></td></tr><tr><td style="font-weight:bold;vertical-align:top;">http_accept</td><td style="vertical-align:top;">:</td><td><div>text/html,application/xhtml+xml,application/xml;q=0.9,image/webp,*/*;q=0.8</div></td></tr><tr><td style="font-weight:bold;vertical-align:top;">http_accept_encoding</td><td style="vertical-align:top;">:</td><td><div>gzip, deflate, sdch, br</div></td></tr><tr><td style="font-weight:bold;vertical-align:top;">http_accept_language</td><td style="vertical-align:top;">:</td><td><div>es,en;q=0.8</div></td></tr><tr><td style="font-weight:bold;vertical-align:top;">http_cache_control</td><td style="vertical-align:top;">:</td><td><div>max-age=0</div></td></tr><tr><td style="font-weight:bold;vertical-align:top;">http_connection</td><td style="vertical-align:top;">:</td><td><div>keep-alive</div></td></tr><tr><td style="font-weight:bold;vertical-align:top;">http_cookie</td><td style="vertical-align:top;">:</td><td><div>session_id_sigulab=127.0.0.1-0899b1a3-cc34-4ba0-a38c-a7345df10835; session_id_admin=127.0.0.1-eb0584ef-b6d4-4547-b804-08344a0a845e</div></td></tr><tr><td style="font-weight:bold;vertical-align:top;">http_dnt</td><td style="vertical-align:top;">:</td><td><div>1</div></td></tr><tr><td style="font-weight:bold;vertical-align:top;">http_host</td><td style="vertical-align:top;">:</td><td><div>127.0.0.1:8000</div></td></tr><tr><td style="font-weight:bold;vertical-align:top;">http_referer</td><td style="vertical-align:top;">:</td><td><div>http://127.0.0.1:8000/user/login?_next=/front_page</div></td></tr><tr><td style="font-weight:bold;vertical-align:top;">http_upgrade_insecure_requests</td><td style="vertical-align:top;">:</td><td><div>1</div></td></tr><tr><td style="font-weight:bold;vertical-align:top;">http_user_agent</td><td style="vertical-align:top;">:</td><td><div>Mozilla/5.0 (X11; Linux x86_64) AppleWebKit/537.36 (KHTML, like Gecko) Chrome/56.0.2924.87 Safari/537.36</div></td></tr><tr><td style="font-weight:bold;vertical-align:top;">is_jython</td><td style="vertical-align:top;">:</td><td><div>False</div></td></tr><tr><td style="font-weight:bold;vertical-align:top;">is_pypy</td><td style="vertical-align:top;">:</td><td><div>False</div></td></tr><tr><td style="font-weight:bold;vertical-align:top;">is_source</td><td style="vertical-align:top;">:</td><td><div>True</div></td></tr><tr><td style="font-weight:bold;vertical-align:top;">local_hosts</td><td style="vertical-align:top;">:</td><td><div><table><tr><td><div>127.0.1.1</div></td></tr><tr><td><div>::1</div></td></tr><tr><td><div>adolfo-PC</div></td></tr><tr><td><div>::ffff:127.0.0.1</div></td></tr><tr><td><div>127.0.0.1</div></td></tr></table></div></td></tr><tr><td style="font-weight:bold;vertical-align:top;">path_info</td><td style="vertical-align:top;">:</td><td><div>/user/register</div></td></tr><tr><td style="font-weight:bold;vertical-align:top;">query_string</td><td style="vertical-align:top;">:</td><td><div>_next=%2Ffront_page</div></td></tr><tr><td style="font-weight:bold;vertical-align:top;">remote_addr</td><td style="vertical-align:top;">:</td><td><div>127.0.0.1</div></td></tr><tr><td style="font-weight:bold;vertical-align:top;">remote_port</td><td style="vertical-align:top;">:</td><td><div>57373</div></td></tr><tr><td style="font-weight:bold;vertical-align:top;">request_method</td><td style="vertical-align:top;">:</td><td><div>GET</div></td></tr><tr><td style="font-weight:bold;vertical-align:top;">request_uri</td><td style="vertical-align:top;">:</td><td><div>/SIGULAB/default/user/register?_next=%2Ffront_page</div></td></tr><tr><td style="font-weight:bold;vertical-align:top;">script_name</td><td style="vertical-align:top;">:</td><td><div></div></td></tr><tr><td style="font-weight:bold;vertical-align:top;">server_name</td><td style="vertical-align:top;">:</td><td><div>adolfo-PC</div></td></tr><tr><td style="font-weight:bold;vertical-align:top;">server_port</td><td style="vertical-align:top;">:</td><td><div>8000</div></td></tr><tr><td style="font-weight:bold;vertical-align:top;">server_protocol</td><td style="vertical-align:top;">:</td><td><div>HTTP/1.1</div></td></tr><tr><td style="font-weight:bold;vertical-align:top;">server_software</td><td style="vertical-align:top;">:</td><td><div>Rocket 1.2.6</div></td></tr><tr><td style="font-weight:bold;vertical-align:top;">web2py_original_uri</td><td style="vertical-align:top;">:</td><td><div>/user/register?_next=%2Ffront_page</div></td></tr><tr><td style="font-weight:bold;vertical-align:top;">web2py_path</td><td style="vertical-align:top;">:</td><td><div>/home/adolfo/Desktop/PROYECTO ULAB</div></td></tr><tr><td style="font-weight:bold;vertical-align:top;">web2py_version</td><td style="vertical-align:top;">:</td><td><div>2.14.6-stable+timestamp.2016.05.10.00.21.47</div></td></tr><tr><td style="font-weight:bold;vertical-align:top;">wsgi.errors</td><td style="vertical-align:top;">:</td><td><div>&lt;open file &#x27;&lt;stderr&gt;&#x27;, mode &#x27;w&#x27; at 0x7fddf77661e0&gt;</div></td></tr><tr><td style="font-weight:bold;vertical-align:top;">wsgi.file_wrapper</td><td style="vertical-align:top;">:</td><td><div>&lt;class wsgiref.util.FileWrapper at 0x7fddeca4b120&gt;</div></td></tr><tr><td style="font-weight:bold;vertical-align:top;">wsgi.input</td><td style="vertical-align:top;">:</td><td><div>&lt;socket._fileobject object at 0x7fddadf0fd50&gt;</div></td></tr><tr><td style="font-weight:bold;vertical-align:top;">wsgi.multiprocess</td><td style="vertical-align:top;">:</td><td><div>False</div></td></tr><tr><td style="font-weight:bold;vertical-align:top;">wsgi.multithread</td><td style="vertical-align:top;">:</td><td><div>True</div></td></tr><tr><td style="font-weight:bold;vertical-align:top;">wsgi.run_once</td><td style="vertical-align:top;">:</td><td><div>False</div></td></tr><tr><td style="font-weight:bold;vertical-align:top;">wsgi.url_scheme</td><td style="vertical-align:top;">:</td><td><div>http</div></td></tr><tr><td style="font-weight:bold;vertical-align:top;">wsgi.version</td><td style="vertical-align:top;">:</td><td><div><table><tr><td><div>1</div></td></tr><tr><td><div>0</div></td></tr></table></div></td></tr><tr><td style="font-weight:bold;vertical-align:top;">wsgi_errors</td><td style="vertical-align:top;">:</td><td><div>&lt;open file &#x27;&lt;stderr&gt;&#x27;, mode &#x27;w&#x27; at 0x7fddf77661e0&gt;</div></td></tr><tr><td style="font-weight:bold;vertical-align:top;">wsgi_file_wrapper</td><td style="vertical-align:top;">:</td><td><div>&lt;class wsgiref.util.FileWrapper at 0x7fddeca4b120&gt;</div></td></tr><tr><td style="font-weight:bold;vertical-align:top;">wsgi_input</td><td style="vertical-align:top;">:</td><td><div>&lt;socket._fileobject object at 0x7fddadf0fd50&gt;</div></td></tr><tr><td style="font-weight:bold;vertical-align:top;">wsgi_multiprocess</td><td style="vertical-align:top;">:</td><td><div>False</div></td></tr><tr><td style="font-weight:bold;vertical-align:top;">wsgi_multithread</td><td style="vertical-align:top;">:</td><td><div>True</div></td></tr><tr><td style="font-weight:bold;vertical-align:top;">wsgi_run_once</td><td style="vertical-align:top;">:</td><td><div>False</div></td></tr><tr><td style="font-weight:bold;vertical-align:top;">wsgi_url_scheme</td><td style="vertical-align:top;">:</td><td><div>http</div></td></tr><tr><td style="font-weight:bold;vertical-align:top;">wsgi_version</td><td style="vertical-align:top;">:</td><td><div><table><tr><td><div>1</div></td></tr><tr><td><div>0</div></td></tr></table></div></td></tr></table></div></td></tr><tr><td style="font-weight:bold;vertical-align:top;">extension</td><td style="vertical-align:top;">:</td><td><div>html</div></td></tr><tr><td style="font-weight:bold;vertical-align:top;">folder</td><td style="vertical-align:top;">:</td><td><div>/home/adolfo/Desktop/PROYECTO ULAB/applications/SIGULAB/</div></td></tr><tr><td style="font-weight:bold;vertical-align:top;">function</td><td style="vertical-align:top;">:</td><td><div>user</div></td></tr><tr><td style="font-weight:bold;vertical-align:top;">global_settings</td><td style="vertical-align:top;">:</td><td><div><table><tr><td style="font-weight:bold;vertical-align:top;">app_folders</td><td style="vertical-align:top;">:</td><td><div>set([&#x27;/home/adolfo/Desktop/PROYECTO ULAB/applications/admin/&#x27;, &#x27;/home/adolfo/Desktop/PROYECTO ULAB/applications/SIGULAB/&#x27;])</div></td></tr><tr><td style="font-weight:bold;vertical-align:top;">applications_parent</td><td style="vertical-align:top;">:</td><td><div>/home/adolfo/Desktop/PROYECTO ULAB</div></td></tr><tr><td style="font-weight:bold;vertical-align:top;">cmd_args</td><td style="vertical-align:top;">:</td><td><div><table></table></div></td></tr><tr><td style="font-weight:bold;vertical-align:top;">cmd_options</td><td style="vertical-align:top;">:</td><td><div>&lt;Values at 0x7fddec99a680: {&#x27;verbose&#x27;: False, &#x27;ip&#x27;: &#x27;127.0.0.1&#x27;, &#x27;debuglevel&#x27;: 30, &#x27;with_scheduler&#x27;: False, &#x27;shutdown_timeout&#x27;: 5, &#x27;taskbar&#x27;: False, &#x27;with_coverage&#x27;: False, &#x27;pid_filename&#x27;: &#x27;httpserver.pid&#x27;, &#x27;maxthreads&#x27;: None, &#x27;softcron&#x27;: False, &#x27;server_name&#x27;: &#x27;adolfo-PC&#x27;, &#x27;bpython&#x27;: False, &#x27;nogui&#x27;: False, &#x27;port&#x27;: 8000, &#x27;print_errors&#x27;: False, &#x27;extcron&#x27;: False, &#x27;runcron&#x27;: False, &#x27;run_system_tests&#x27;: False, &#x27;test&#x27;: None, &#x27;folder&#x27;: &#x27;/home/adolfo/Desktop/PROYECTO ULAB&#x27;, &#x27;config&#x27;: &#x27;&#x27;, &#x27;minthreads&#x27;: None, &#x27;shell&#x27;: None, &#x27;run&#x27;: &#x27;&#x27;, &#x27;log_filename&#x27;: &#x27;httpserver.log&#x27;, &#x27;profiler_dir&#x27;: None, &#x27;args&#x27;: [&#x27;&#x27;], &#x27;socket_timeout&#x27;: 5, &#x27;ssl_ca_certificate&#x27;: None, &#x27;scheduler&#x27;: None, &#x27;interfaces&#x27;: None, &#x27;ssl_private_key&#x27;: &#x27;&#x27;, &#x27;gae&#x27;: None, &#x27;password&#x27;: &#x27;******&#x27;, &#x27;request_queue_size&#x27;: 5, &#x27;ssl_certificate&#x27;: &#x27;&#x27;, &#x27;cronjob&#x27;: False, &#x27;numthreads&#x27;: None, &#x27;quiet&#x27;: False, &#x27;import_models&#x27;: False, &#x27;timeout&#x27;: 10, &#x27;plain&#x27;: False, &#x27;nobanner&#x27;: False}&gt;</div></td></tr><tr><td style="font-weight:bold;vertical-align:top;">db_sessions</td><td style="vertical-align:top;">:</td><td><div>set([])</div></td></tr><tr><td style="font-weight:bold;vertical-align:top;">debugging</td><td style="vertical-align:top;">:</td><td><div>False</div></td></tr><tr><td style="font-weight:bold;vertical-align:top;">gluon_parent</td><td style="vertical-align:top;">:</td><td><div>/home/adolfo/Desktop/PROYECTO ULAB</div></td></tr><tr><td style="font-weight:bold;vertical-align:top;">is_jython</td><td style="vertical-align:top;">:</td><td><div>False</div></td></tr><tr><td style="font-weight:bold;vertical-align:top;">is_pypy</td><td style="vertical-align:top;">:</td><td><div>False</div></td></tr><tr><td style="font-weight:bold;vertical-align:top;">is_source</td><td style="vertical-align:top;">:</td><td><div>True</div></td></tr><tr><td style="font-weight:bold;vertical-align:top;">local_hosts</td><td style="vertical-align:top;">:</td><td><div><table><tr><td><div>127.0.1.1</div></td></tr><tr><td><div>::1</div></td></tr><tr><td><div>adolfo-PC</div></td></tr><tr><td><div>::ffff:127.0.0.1</div></td></tr><tr><td><div>127.0.0.1</div></td></tr></table></div></td></tr><tr><td style="font-weight:bold;vertical-align:top;">web2py_version</td><td style="vertical-align:top;">:</td><td><div>2.14.6-stable+timestamp.2016.05.10.00.21.47</div></td></tr></table></div></td></tr><tr><td style="font-weight:bold;vertical-align:top;">is_https</td><td style="vertical-align:top;">:</td><td><div>False</div></td></tr><tr><td style="font-weight:bold;vertical-align:top;">is_local</td><td style="vertical-align:top;">:</td><td><div>True</div></td></tr><tr><td style="font-weight:bold;vertical-align:top;">is_restful</td><td style="vertical-align:top;">:</td><td><div>False</div></td></tr><tr><td style="font-weight:bold;vertical-align:top;">is_scheduler</td><td style="vertical-align:top;">:</td><td><div>False</div></td></tr><tr><td style="font-weight:bold;vertical-align:top;">is_shell</td><td style="vertical-align:top;">:</td><td><div>False</div></td></tr><tr><td style="font-weight:bold;vertical-align:top;">now</td><td style="vertical-align:top;">:</td><td><div>datetime.datetime(2017, 2, 12, 17, 41, 1, 740138)</div></td></tr><tr><td style="font-weight:bold;vertical-align:top;">url</td><td style="vertical-align:top;">:</td><td><div>/user/register</div></td></tr><tr><td style="font-weight:bold;vertical-align:top;">utcnow</td><td style="vertical-align:top;">:</td><td><div>datetime.datetime(2017, 2, 12, 21, 41, 1, 740212)</div></td></tr><tr><td style="font-weight:bold;vertical-align:top;">wsgi</td><td style="vertical-align:top;">:</td><td><div>&lt;gluon.main.LazyWSGI object at 0x7fddad27ec50&gt;</div></td></tr></table></div>'
tRp58
sS'frames'
p59
(lp60
(dp61
S'file'
p62
S'/home/adolfo/Desktop/PROYECTO ULAB/gluon/restricted.py'
p63
sS'dump'
p64
(dp65
S'environment'
p66
S"{'A': <class 'gluon.html.A'>, 'ANY_OF': <class 'gluon.validators.ANY_OF'>, 'ASSIGNJS': <function ASSIGNJS>, 'AppConfig': <function AppConfig>, 'Auth': <class 'gluon.tools.Auth'>, 'B': <class 'gluon.html.B'>, 'BEAUTIFY': <class 'gluon.html.BEAUTIFY'>, 'BODY': <class 'gluon.html.BODY'>, 'BR': <class 'gluon.html.BR'>, 'BUTTON': <class 'gluon.html.BUTTON'>, ...}"
p67
sS'ccode'
p68
S'<code object <module> at 0x7fddad26cb30, file "/...ications/SIGULAB/controllers/default.py", line 3>'
p69
ssS'lnum'
p70
I227
sS'lines'
p71
(dp72
I224
S'            ccode = code'
p73
sI225
S'        else:'
p74
sI226
S'            ccode = compile2(code, layer)'
p75
sI227
S'        exec ccode in environment'
p76
sI228
S'    except HTTP:'
p77
sI229
S'        raise'
p78
sI230
S'    except RestrictedError:'
p79
sI231
S'        # do not encapsulate (obfuscate) the original RestrictedError'
p80
sI222
S'    try:'
p81
sI223
S'        if isinstance(code, types.CodeType):'
p82
ssS'call'
p83
S"(code='# -*- coding: utf-8 -*-\\n### required - do no del... locals()\\n\\nresponse._vars=response._caller(user)\\n', environment={'A': <class 'gluon.html.A'>, 'ANY_OF': <class 'gluon.validators.ANY_OF'>, 'ASSIGNJS': <function ASSIGNJS>, 'AppConfig': <function AppConfig>, 'Auth': <class 'gluon.tools.Auth'>, 'B': <class 'gluon.html.B'>, 'BEAUTIFY': <class 'gluon.html.BEAUTIFY'>, 'BODY': <class 'gluon.html.BODY'>, 'BR': <class 'gluon.html.BR'>, 'BUTTON': <class 'gluon.html.BUTTON'>, ...}, layer='/home/adolfo/Desktop/PROYECTO ULAB/applications/SIGULAB/controllers/default.py')"
p84
sS'func'
p85
S'restricted'
p86
sa(dp87
g62
S'/home/adolfo/Desktop/PROYECTO ULAB/applications/SIGULAB/controllers/default.py'
p88
sg64
(dp89
sg70
I34
sg71
(dp90
I32
S'    return locals()'
p91
sI23
S'def bitacora_manage():'
p92
sI24
S'    form = SQLFORM.smartgrid(db.t_bitacora,onupdate=auth.archive)'
p93
sI25
S'    return locals()'
p94
sI26
S'@auth.requires_login()'
p95
sI27
S'def solicitudes_manage():'
p96
sI28
S'    return dict()'
p97
sI29
S'@auth.requires_login()'
p98
sI30
S'def solicitud_manage():'
p99
sI31
S'    form = SQLFORM.smartgrid(db.t_solicitud,onupdate=auth.archive)'
p100
ssg83
S'()'
p101
sg85
S'<module>'
p102
sa(dp103
g62
S'/home/adolfo/Desktop/PROYECTO ULAB/gluon/globals.py'
p104
sg64
(dp105
S'self'
p106
S'undefined'
p107
sS'f'
S'<function user>'
p108
ssg70
I417
sg71
(dp109
I416
S'        self._vars = None'
p110
sI417
S'        self._caller = lambda f: f()'
p111
sI418
S'        self._view_environment = None'
p112
sI419
S'        self._custom_commit = None'
p113
sI420
S'        self._custom_rollback = None'
p114
sI421
S"        self.generic_patterns = ['*']"
p115
sI412
S"        self.flash = ''            # used by the default view layout"
p116
sI413
S'        self.meta = Storage()      # used by web2py_ajax.html'
p117
sI414
S'        self.menu = []             # used by the default view layout'
p118
sI415
S'        self.files = []            # used by web2py_ajax.html'
p119
ssg83
S'(f=<function user>)'
p120
sg85
S'<lambda>'
p121
sa(dp122
g62
S'/home/adolfo/Desktop/PROYECTO ULAB/applications/SIGULAB/controllers/default.py'
p123
sg64
(dp124
S'global auth'
p125
S'<gluon.tools.Auth object>'
p126
sS'form'
p127
g107
sS'global user'
p128
S'<function user>'
p129
sS'builtindict'
p130
S"<type 'dict'>"
p131
ssg70
I3
sg71
(dp132
I2
S'### required - do no delete'
p133
sI3
S'def user(): return dict(form=auth())'
p134
sI4
S'def download(): return response.download(request,db)'
p135
sI5
S'def call(): return service()'
p136
sI6
S'### end requires'
p137
sI7
S'def index():'
p138
sI8
S'    return dict()'
p139
sI9
S''
sI10
S'def error():'
p140
sI11
S'    return dict()'
p141
ssg83
S'()'
p142
sg85
S'user'
p143
sa(dp144
g62
S'/home/adolfo/Desktop/PROYECTO ULAB/gluon/tools.py'
p145
sg64
(dp146
S'self'
p147
S'<gluon.tools.Auth object>'
p148
sS'args'
p149
S"['register']"
p150
sS'builtingetattr'
p151
S'<built-in function getattr>'
p152
ssg70
I1941
sg71
(dp153
I1936
S"                       'impersonate', 'not_authorized', 'confirm_registration',"
p154
sI1937
S"                       'bulk_register', 'manage_tokens', 'jwt'):"
p155
sI1938
S"            if len(request.args) >= 2 and args[0] == 'impersonate':"
p156
sI1939
S'                return getattr(self, args[0])(request.args[1])'
p157
sI1940
S'            else:'
p158
sI1941
S'                return getattr(self, args[0])()'
p159
sI1942
S"        elif args[0] == 'cas' and not self.settings.cas_provider:"
p160
sI1943
S"            if args(1) == self.settings.cas_actions['login']:"
p161
sI1944
S'                return self.cas_login(version=2)'
p162
sI1945
S"            elif args(1) == self.settings.cas_actions['validate']:"
p163
ssg83
S'(self=<gluon.tools.Auth object>)'
p164
sg85
S'__call__'
p165
sa(dp166
g62
S'/home/adolfo/Desktop/PROYECTO ULAB/gluon/tools.py'
p167
sg64
(dp168
S'extra_fields'
p169
S'[<pydal.objects.Field object>]'
p170
ssg70
I3329
sg71
(dp171
I3328
S'                       separator=self.settings.label_separator,'
p172
sI3329
S'                       extra_fields=extra_fields'
p173
sI3330
S'                       )'
p174
sI3331
S''
sI3332
S'        captcha = self.settings.register_captcha or self.settings.captcha'
p175
sI3333
S'        if captcha:'
p176
sI3324
S'                       showid=self.settings.showid,'
p177
sI3325
S'                       submit_button=self.messages.register_button,'
p178
sI3326
S'                       delete_label=self.messages.delete_label,'
p179
sI3327
S'                       formstyle=formstyle,'
p180
ssg83
S"(self=<gluon.tools.Auth object>, next='/front_page', onvalidation=[], onaccept=[], log='User %(id)s Registered')"
p181
sg85
S'register'
p182
sa(dp183
g62
S'/home/adolfo/Desktop/PROYECTO ULAB/gluon/sqlhtml.py'
p184
sg64
(dp185
S'default'
p186
S'None'
p187
sS'self.widgets.options.widget'
p188
S"<bound method type.widget of <class 'gluon.sqlhtml.OptionsWidget'>>"
p189
sS'self'
p190
S'<gluon.sqlhtml.SQLFORM object>'
p191
sS'inp'
p192
S'<gluon.html.SELECT object>'
p193
sS'self.widgets'
p194
S"<Storage {'multiple': <class 'gluon.sqlhtml.Mult...ss 'gluon.sqlhtml.OptionsWidget'>, 'blob': None}>"
p195
sS'field'
p196
S'<pydal.objects.Field object>'
p197
sS'self.widgets.options'
p198
S"<class 'gluon.sqlhtml.OptionsWidget'>"
p199
ssg70
I1295
sg71
(dp200
I1290
S"                    inpval = 'checked'"
p201
sI1291
S'                else:'
p202
sI1292
S"                    inpval = ''"
p203
sI1293
S'            elif OptionsWidget.has_options(field):'
p204
sI1294
S'                if not field.requires.multiple:'
p205
sI1295
S'                    inp = self.widgets.options.widget(field, default)'
p206
sI1296
S'                else:'
p207
sI1297
S'                    inp = self.widgets.multiple.widget(field, default)'
p208
sI1298
S'                if fieldname in keepopts:'
p209
sI1299
S'                    inpval = CAT(*inp.components)'
p210
ssg83
S"(self=<gluon.sqlhtml.SQLFORM object>, table=<Table auth_user (id, first_name, last_name, ema...argo, f_espaciofisico, f_seccion, f_laboratorio)>, record=None, deletable=False, linkto=None, upload=None, fields=['id', 'first_name', 'last_name', 'email', 'password', 'password_two', 'cargo', 'f_espaciofisico', 'f_seccion', 'f_laboratorio'], labels=None, col3={}, submit_button=<lazyT 'Sign Up'>, delete_label=<lazyT 'Check to delete'>, showid=False, readonly=False, comments=True, keepopts=[], ignore_rw=False, record_id=None, formstyle='bootstrap3_inline', buttons=['submit'], separator='', extra_fields=[<pydal.objects.Field object>], **attributes={'hidden': {'_next': '/front_page'}})"
p211
sg85
g50
sa(dp212
g62
S'/home/adolfo/Desktop/PROYECTO ULAB/gluon/sqlhtml.py'
p213
sg64
(dp214
S'].options'
p215
g107
sS'requires'
p216
S'[<gluon.validators.IS_IN_DB object>]'
p217
sS'options'
p218
g107
ssg70
I313
sg71
(dp219
I308
S'        requires = field.requires'
p220
sI309
S'        if not isinstance(requires, (list, tuple)):'
p221
sI310
S'            requires = [requires]'
p222
sI311
S'        if requires:'
p223
sI312
S"            if hasattr(requires[0], 'options'):"
p224
sI313
S'                options = requires[0].options()'
p225
sI314
S'            else:'
p226
sI315
S'                raise SyntaxError('
p227
sI316
S"                    'widget cannot determine options of %s' % field)"
p228
sI317
S'        opts = [OPTION(v, _value=k) for (k, v) in options]'
p229
ssg83
S"(cls=<class 'gluon.sqlhtml.OptionsWidget'>, field=<pydal.objects.Field object>, value=None, **attributes={})"
p230
sg85
S'widget'
p231
sa(dp232
g62
S'/home/adolfo/Desktop/PROYECTO ULAB/gluon/validators.py'
p233
sg64
(dp234
S'self'
p235
S'<gluon.validators.IS_IN_DB object>'
p236
sS'self.build_set'
p237
S'<bound method IS_IN_DB.build_set of <gluon.validators.IS_IN_DB object>>'
p238
ssg70
I598
sg71
(dp239
I593
S'            self.labels = [self.label % r for r in records]'
p240
sI594
S'        else:'
p241
sI595
S'            self.labels = [self.label(r) for r in records]'
p242
sI596
S''
sI597
S'    def options(self, zero=True):'
p243
sI598
S'        self.build_set()'
p244
sI599
S'        items = [(k, self.labels[i]) for (i, k) in enumerate(self.theset)]'
p245
sI600
S'        if self.sort:'
p246
sI601
S'            items.sort(options_sorter)'
p247
sI602
S'        if zero and self.zero is not None and not self.multiple:'
p248
ssg83
S'(self=<gluon.validators.IS_IN_DB object>, zero=True)'
p249
sg85
S'options'
p250
sa(dp251
g62
S'/home/adolfo/Desktop/PROYECTO ULAB/gluon/validators.py'
p252
sg64
(dp253
S'fields'
p254
g107
sS'k'
S"'f_nombre'"
p255
sS'self.fieldnames'
p256
S"['f_nombre', 'id']"
p257
sS'self'
p258
S'<gluon.validators.IS_IN_DB object>'
p259
sS'table'
p260
S'<Table t_espaciofisico (id, f_espacio, f_direccion, f_seccion, f_tecnico)>'
p261
ssg70
I573
sg71
(dp262
I576
S"        if self.dbset.db._dbname != 'gae':"
p263
sI577
S'            orderby = self.orderby or reduce(lambda a, b: a | b, fields)'
p264
sI568
S'    def build_set(self):'
p265
sI569
S'        table = self.dbset.db[self.ktable]'
p266
sI570
S"        if self.fieldnames == '*':"
p267
sI571
S'            fields = [f for f in table]'
p268
sI572
S'        else:'
p269
sI573
S'            fields = [table[k] for k in self.fieldnames]'
p270
sI574
S'        ignore = (FieldVirtual, FieldMethod)'
p271
sI575
S'        fields = filter(lambda f: not isinstance(f, ignore), fields)'
p272
ssg83
S'(self=<gluon.validators.IS_IN_DB object>)'
p273
sg85
S'build_set'
p274
sa(dp275
g62
S'/home/adolfo/Desktop/PROYECTO ULAB/gluon/packages/dal/pydal/objects.py'
p276
sg64
(dp277
S'key'
p278
S"'f_nombre'"
p279
sS'builtinKeyError'
p280
S"<type 'exceptions.KeyError'>"
p281
ssg70
I510
sg71
(dp282
I512
S'    def __call__(self, key=DEFAULT, **kwargs):'
p283
sI513
S"        for_update = kwargs.get('_for_update', False)"
p284
sI514
S"        if '_for_update' in kwargs:"
p285
sI505
S'                ).first()'
p286
sI506
S'            else:'
p287
sI507
S'                try:'
p288
sI508
S'                    return getattr(self, key)'
p289
sI509
S'                except:'
p290
sI510
S'                    raise KeyError(key)'
p291
sI511
S''
ssg83
S"(self=<Table t_espaciofisico (id, f_espacio, f_direccion, f_seccion, f_tecnico)>, key='f_nombre')"
p292
sg85
g20
sasS'pyver'
p293
S'Python 2.7.12: /usr/bin/python (prefix: /usr)'
p294
sS'session'
p295
g57
(S's\x98\x00\x00\x00<div><table><tr><td style="font-weight:bold;vertical-align:top;">flash</td><td style="vertical-align:top;">:</td><td><div></div></td></tr></table></div>'
tRp296
sS'etype'
p297
S"<type 'exceptions.KeyError'>"
p298
sS'date'
p299
S'Sun Feb 12 17:41:01 2017'
p300
sS'response'
p301
g57
(S's\x00\x1b\x00\x00<div><table><tr><td style="font-weight:bold;vertical-align:top;">body</td><td style="vertical-align:top;">:</td><td><div>&lt;cStringIO.StringO object at 0x7fddad3e3308&gt;</div></td></tr><tr><td style="font-weight:bold;vertical-align:top;">cookies</td><td style="vertical-align:top;">:</td><td><div><table><tr><td style="font-weight:bold;vertical-align:top;">session_id_sigulab</td><td style="vertical-align:top;">:</td><td><div>127.0.0.1-0899b1a3-cc34-4ba0-a38c-a7345df10835<table><tr><td style="font-weight:bold;vertical-align:top;">comment</td><td style="vertical-align:top;">:</td><td><div></div></td></tr><tr><td style="font-weight:bold;vertical-align:top;">domain</td><td style="vertical-align:top;">:</td><td><div></div></td></tr><tr><td style="font-weight:bold;vertical-align:top;">expires</td><td style="vertical-align:top;">:</td><td><div></div></td></tr><tr><td style="font-weight:bold;vertical-align:top;">httponly</td><td style="vertical-align:top;">:</td><td><div></div></td></tr><tr><td style="font-weight:bold;vertical-align:top;">max-age</td><td style="vertical-align:top;">:</td><td><div></div></td></tr><tr><td style="font-weight:bold;vertical-align:top;">path</td><td style="vertical-align:top;">:</td><td><div>/</div></td></tr><tr><td style="font-weight:bold;vertical-align:top;">secure</td><td style="vertical-align:top;">:</td><td><div></div></td></tr><tr><td style="font-weight:bold;vertical-align:top;">version</td><td style="vertical-align:top;">:</td><td><div></div></td></tr></table></div></td></tr></table></div></td></tr><tr><td style="font-weight:bold;vertical-align:top;">delimiters</td><td style="vertical-align:top;">:</td><td><div><table><tr><td><div>{{</div></td></tr><tr><td><div>}}</div></td></tr></table></div></td></tr><tr><td style="font-weight:bold;vertical-align:top;">files</td><td style="vertical-align:top;">:</td><td><div><table></table></div></td></tr><tr><td style="font-weight:bold;vertical-align:top;">flash</td><td style="vertical-align:top;">:</td><td><div></div></td></tr><tr><td style="font-weight:bold;vertical-align:top;">form_label_separator</td><td style="vertical-align:top;">:</td><td><div></div></td></tr><tr><td style="font-weight:bold;vertical-align:top;">formstyle</td><td style="vertical-align:top;">:</td><td><div>bootstrap3_inline</div></td></tr><tr><td style="font-weight:bold;vertical-align:top;">generic_patterns</td><td style="vertical-align:top;">:</td><td><div><table><tr><td><div>*</div></td></tr></table></div></td></tr><tr><td style="font-weight:bold;vertical-align:top;">headers</td><td style="vertical-align:top;">:</td><td><div><table><tr><td style="font-weight:bold;vertical-align:top;">X-Powered-By</td><td style="vertical-align:top;">:</td><td><div>web2py</div></td></tr></table></div></td></tr><tr><td style="font-weight:bold;vertical-align:top;">menu</td><td style="vertical-align:top;">:</td><td><div><table><tr><td><div><table><tr><td><div>Inicio</div></td></tr><tr><td><div>False</div></td></tr><tr><td><div>/</div></td></tr><tr><td><div><table></table></div></td></tr></table></div></td></tr></table></div></td></tr><tr><td style="font-weight:bold;vertical-align:top;">meta</td><td style="vertical-align:top;">:</td><td><div><table><tr><td style="font-weight:bold;vertical-align:top;">author</td><td style="vertical-align:top;">:</td><td><div>Lambda &lt;you@example.com&gt;</div></td></tr><tr><td style="font-weight:bold;vertical-align:top;">description</td><td style="vertical-align:top;">:</td><td><div></div></td></tr><tr><td style="font-weight:bold;vertical-align:top;">keywords</td><td style="vertical-align:top;">:</td><td><div></div></td></tr></table></div></td></tr><tr><td style="font-weight:bold;vertical-align:top;">models_to_run</td><td style="vertical-align:top;">:</td><td><div><table><tr><td><div>^\\w+\\.py$</div></td></tr><tr><td><div>^default/\\w+\\.py$</div></td></tr><tr><td><div>^default/user/\\w+\\.py$</div></td></tr></table></div></td></tr><tr><td style="font-weight:bold;vertical-align:top;">postprocessing</td><td style="vertical-align:top;">:</td><td><div><table></table></div></td></tr><tr><td style="font-weight:bold;vertical-align:top;">session_client</td><td style="vertical-align:top;">:</td><td><div>127.0.0.1</div></td></tr><tr><td style="font-weight:bold;vertical-align:top;">session_cookie_compression_level</td><td style="vertical-align:top;">:</td><td><div>None</div></td></tr><tr><td style="font-weight:bold;vertical-align:top;">session_cookie_expires</td><td style="vertical-align:top;">:</td><td><div>None</div></td></tr><tr><td style="font-weight:bold;vertical-align:top;">session_data_name</td><td style="vertical-align:top;">:</td><td><div>session_data_sigulab</div></td></tr><tr><td style="font-weight:bold;vertical-align:top;">session_file</td><td style="vertical-align:top;">:</td><td><div>&lt;open file &#x27;/home/adolfo/Desktop/PROYECTO ULAB/applications/SIGULAB/sessions/15c/11f/127.0.0.1-0899b1a3-cc34-4ba0-a38c-a7345df10835&#x27;, mode &#x27;rb+&#x27; at 0x7fddad8a3030&gt;</div></td></tr><tr><td style="font-weight:bold;vertical-align:top;">session_filename</td><td style="vertical-align:top;">:</td><td><div>/home/adolfo/Desktop/PROYECTO ULAB/applications/SIGULAB/sessions/127.0.0.1-0899b1a3-cc34-4ba0-a38c-a7345df10835</div></td></tr><tr><td style="font-weight:bold;vertical-align:top;">session_hash</td><td style="vertical-align:top;">:</td><td><div>21e169f2b1d7832d7c1180d2285f64d0</div></td></tr><tr><td style="font-weight:bold;vertical-align:top;">session_id</td><td style="vertical-align:top;">:</td><td><div>127.0.0.1-0899b1a3-cc34-4ba0-a38c-a7345df10835</div></td></tr><tr><td style="font-weight:bold;vertical-align:top;">session_id_name</td><td style="vertical-align:top;">:</td><td><div>session_id_sigulab</div></td></tr><tr><td style="font-weight:bold;vertical-align:top;">session_locked</td><td style="vertical-align:top;">:</td><td><div>True</div></td></tr><tr><td style="font-weight:bold;vertical-align:top;">session_masterapp</td><td style="vertical-align:top;">:</td><td><div>SIGULAB</div></td></tr><tr><td style="font-weight:bold;vertical-align:top;">session_new</td><td style="vertical-align:top;">:</td><td><div>False</div></td></tr><tr><td style="font-weight:bold;vertical-align:top;">session_storage_type</td><td style="vertical-align:top;">:</td><td><div>file</div></td></tr><tr><td style="font-weight:bold;vertical-align:top;">status</td><td style="vertical-align:top;">:</td><td><div>200</div></td></tr><tr><td style="font-weight:bold;vertical-align:top;">subtitle</td><td style="vertical-align:top;">:</td><td><div>Equipo</div></td></tr><tr><td style="font-weight:bold;vertical-align:top;">title</td><td style="vertical-align:top;">:</td><td><div>Sistema De Gesti\xc3\xb3n ULAB - USB</div></td></tr><tr><td style="font-weight:bold;vertical-align:top;">view</td><td style="vertical-align:top;">:</td><td><div>default/user.html</div></td></tr></table></div>'
tRp302
sS'locals'
p303
(dp304
S'self'
p305
S'<Table t_espaciofisico (id, f_espacio, f_direccion, f_seccion, f_tecnico)>'
p306
sS'isgoogle'
p307
S'False'
p308
sS'key'
p309
S"'f_nombre'"
p310
sssS'traceback'
p311
S'Traceback (most recent call last):\n  File "/home/adolfo/Desktop/PROYECTO ULAB/gluon/restricted.py", line 227, in restricted\n    exec ccode in environment\n  File "/home/adolfo/Desktop/PROYECTO ULAB/applications/SIGULAB/controllers/default.py", line 34, in <module>\n  File "/home/adolfo/Desktop/PROYECTO ULAB/gluon/globals.py", line 417, in <lambda>\n    self._caller = lambda f: f()\n  File "/home/adolfo/Desktop/PROYECTO ULAB/applications/SIGULAB/controllers/default.py", line 3, in user\n    def user(): return dict(form=auth())\n  File "/home/adolfo/Desktop/PROYECTO ULAB/gluon/tools.py", line 1941, in __call__\n    return getattr(self, args[0])()\n  File "/home/adolfo/Desktop/PROYECTO ULAB/gluon/tools.py", line 3329, in register\n    extra_fields=extra_fields\n  File "/home/adolfo/Desktop/PROYECTO ULAB/gluon/sqlhtml.py", line 1295, in __init__\n    inp = self.widgets.options.widget(field, default)\n  File "/home/adolfo/Desktop/PROYECTO ULAB/gluon/sqlhtml.py", line 313, in widget\n    options = requires[0].options()\n  File "/home/adolfo/Desktop/PROYECTO ULAB/gluon/validators.py", line 598, in options\n    self.build_set()\n  File "/home/adolfo/Desktop/PROYECTO ULAB/gluon/validators.py", line 573, in build_set\n    fields = [table[k] for k in self.fieldnames]\n  File "/home/adolfo/Desktop/PROYECTO ULAB/gluon/packages/dal/pydal/objects.py", line 510, in __getitem__\n    raise KeyError(key)\nKeyError: \'f_nombre\'\n'
p312
s.