(dp1
S'output'
p2
S"<type 'exceptions.ValueError'> invalid literal for long() with base 10: 'jrodrig@usb.ve'"
p3
sS'layer'
p4
S'/home/adolfo/Desktop/PROYECTO ULAB/applications/SIGULAB/models/tablas_base.py'
p5
sS'code'
p6
S'### we prepend t_ to tablenames and f_ to fieldnames for disambiguity\n\n#editado por adolfo\nif db(db.auth_group).isempty():\n    db.auth_group.insert(role=\'WebMaster\',description=\'Super Usuario\')\n    db.auth_group.insert(role=\'Director\',description=\'Director de la Unidad de Laboratorio\')\n    db.auth_group.insert(role=\'Administrador Personal\',description=\'Administrador de Personal\')\n    db.auth_group.insert(role=\'Gestor de Sustancias\',description=\'Gestor de Sustancias\')\n    db.auth_group.insert(role=\'Jefe de Laboratorio\',description=\'Jefe de Laboratorio\')\n    db.auth_group.insert(role=\'Jefe de Secci\xc3\xb3n\',description=\'Jefe de Secci\xc3\xb3n\')\n    db.auth_group.insert(role=\'T\xc3\xa9cnico\',description=\'T\xc3\xa9cnico de Laboratorio\')\n    db.auth_group.insert(role=\'Usuario Normal\',description=\'Usuario recien registrado\')\n\nif db(db.auth_permission).isempty():\n    db.auth_permission.insert(name=\'director\',table_name=\'t_sustancias\',\n                            group_id=(db(db.auth_group.role == "Director").select(db.auth_group.id).first()))\n    db.auth_permission.insert(name=\'gestor\',table_name=\'t_sustancias\',\n                            group_id=db(db.auth_group.role == "Gestor de Sustancias").select(db.auth_group.id).first())\n    db.auth_permission.insert(name=\'tecnico\',table_name=\'t_inventario\',\n                            group_id=db(db.auth_group.role == "T\xc3\xa9cnico").select(db.auth_group.id).first())\n    db.auth_permission.insert(name=\'jefeseccion\',table_name=\'t_inventario\',\n                            group_id=db(db.auth_group.role == "Jefe de Secci\xc3\xb3n").select(db.auth_group.id).first())\n    db.auth_permission.insert(name=\'jefelab\',table_name=\'t_inventario\',\n                            group_id=db(db.auth_group.role == "Jefe de Laboratorio").select(db.auth_group.id).first())\n\n###############################################\n#editado por adolfo\nif db(db.auth_user).isempty():\n        db.auth_user.insert(first_name=\'Super\',last_name=\'Usuario\',email=\'webmaster@sigulab.com\',password=db.auth_user.password.validate(\'0000\')[0])\n        db.auth_membership.insert(user_id=(db(db.auth_user.email == \'webmaster@sigulab.com\').select(db.auth_user.id).first()),\\\n            group_id=auth.id_group(role="WebMaster"));\n\ndb.auth_membership._plural = \'Membres\xc3\xadas\'\ndb.auth_membership._singular = \'Membres\xc3\xada\'\n\ndb.auth_group._plural = \'Privilegios\'\ndb.auth_group._singular = \'Privilegio\'\n\ndb.auth_user._plural = \'Usuarios Registrados\'\ndb.auth_user._singular = \'Usuario Registrado\'\n\ndb.define_table(\'t_users_autorizados\',\n    Field(\'f_email\', \'string\', label=T(\'Email\')),\n    Field(\'f_group\', \'integer\', label=T(\'Privilegio\'), requires=IS_IN_DB(db, db.auth_group.id, \'%(role)s (%(id)s)\'), represent = lambda value,row: str(db(db.auth_group.id == value).select(db.auth_group.role))[17:]),\n    migrate=settings.migrate)\n\ndb.t_users_autorizados._plural = \'Usuarios Autorizados\'\ndb.t_users_autorizados._singular = \'Usuario Autorizado\'\n\ndb.t_users_pendientes._plural = \'Usuarios que requieren autorizaci\xc3\xb3n\'\ndb.t_users_pendientes._singular = \'Usuario que requiere autorizaci\xc3\xb3n\'\n\ndef check_autorizado(f, uid):\n    row = db(db.t_users_autorizados.f_email == f[\'email\']).select(db.t_users_autorizados.f_email, db.t_users_autorizados.f_group).first()\n    \n    usuario = db(db.auth_user.id==uid).select().first()\n\n    if row is not None:\n        if row.f_group == f[\'cargo\']:\n            auth.del_membership(auth.id_group(role="Usuario Normal"), uid)\n            auth.add_membership(row.f_group, uid)\n            usuario.update_record(autorizado = True)\n        else:\n            db.t_users_pendientes.insert(f_email=f[\'email\'], f_group=f[\'cargo\'])\n            usuario.update_record(autorizado = False)\n\n    else:\n        db.t_users_pendientes.insert(f_email=f[\'email\'], f_group=f[\'cargo\'])\n        usuario.update_record(autorizado = False)\n\ndb.auth_user._after_insert.append(lambda f, id: check_autorizado(f, id))\n\n#####################################################################\n\n########################################\ndb.define_table(\'t_regimenes\',\n    Field(\'f_nombre\',\'string\',label=T(\'Nombre\')),\n    format = \'%(f_nombre)s\')\n\nif db(db.t_regimenes).isempty():\n    db.t_regimenes.insert(f_nombre=\'RL4\')\n    db.t_regimenes.insert(f_nombre=\'RL7\')\n    db.t_regimenes.insert(f_nombre=\'RL4 y RL7\')\n    db.t_regimenes.insert(f_nombre=\'N/A\')\n##########################################\ndb.define_table(\'t_ingresos\',\n    Field(\'f_nombre\',label=T(\'Nombre\')),\n    format=\'%(f_nombre)s\'\n)\nif db(db.t_ingresos).isempty():\n    db.t_ingresos.insert(f_nombre=\'Suministro de Almac\xc3\xa9n\')\n    db.t_ingresos.insert(f_nombre=\'Compra a Proveedor\')\n    db.t_ingresos.insert(f_nombre=\'Pr\xc3\xa9stamo\')\n    db.t_ingresos.insert(f_nombre=\'Donaci\xc3\xb3n\')\n##########################################\ndb.define_table(\'t_consumos\',\n    Field(\'f_nombre\',label=T(\'Nombre\')),\n    format=\'%(f_nombre)s\'\n)\nif db(db.t_consumos).isempty():\n    db.t_consumos.insert(f_nombre=\'Pr\xc3\xa1ctica de Laboratorio\')\n    db.t_consumos.insert(f_nombre=\'Tesis\')\n    db.t_consumos.insert(f_nombre=\'Proyecto de Investigaci\xc3\xb3n\')\n    db.t_consumos.insert(f_nombre=\'Servicio de Laboratorio\')\n#    Field(\'f_permiso\',\'string\',label=T(\'Permiso\')),\n#    format=\'%(f_nombreCar)s\',\n#    migrate=settings.migrate)\n\n#db.define_table(\'t_cargo_archive\',db.t_cargo,Field(\'current_record\',\'reference t_cargo\',readable=False,writable=False))\n########################################\n\n\n########################################\ndb.define_table(\'t_estado\',\n               Field(\'f_estado\',\'string\',readable=False,writable=False),\n               format=\'%(f_estado)s\')\n\nif db(db.t_estado).isempty():\n    db.t_estado.insert(f_estado=\'S\xc3\xb3lido\')\n    db.t_estado.insert(f_estado=\'L\xc3\xadquido\')\n    db.t_estado.insert(f_estado=\'Gaseoso\')\n\n########################################\n\ndb.define_table(\'t_sustancias\',\n    Field(\'f_nombre\', \'string\', label=T(\'Nombre\')),\n    Field(\'f_cas\', \'string\', label=T(\'Cas\')),\n    Field(\'f_pureza\', \'integer\',requires=IS_INT_IN_RANGE(0, 101), label=T(\'Pureza\')),\n    Field(\'f_estado\', \'integer\', requires=IS_IN_DB(db,db.t_estado.id,\'%(f_estado)s\'), label=T(\'Estado\'),\n    represent = lambda value,row: str(db(db.t_estado.id == value).select(db.t_estado.f_estado))[18:] ),\n    Field(\'f_control\', \'integer\', label=T(\'Control\'), requires=IS_IN_DB(db,db.t_regimenes.id,\'%(f_nombre)s\'),\n    represent = lambda value,row: str(db(db.t_regimenes.id == value).select(db.t_regimenes.f_nombre))[21:] ),\n    Field(\'f_peligrosidad\', \'string\', label=T(\'Peligrosidad\')),\n    format=\'%(f_nombre)s\',\n    migrate=settings.migrate)\ndb.t_sustancias.id.readable=False\ndb.t_sustancias.id.writable=False\ndb.define_table(\'t_sustancias_archive\',db.t_sustancias,Field(\'current_record\',\'reference t_sustancias\',readable=False,writable=False))\n\n\n##########################################\ndb.define_table(\'t_laboratorio\',\n    Field(\'f_nombre\', \'string\', notnull=True, label=T(\'Nombre\')),\n    Field(\'f_jefe\',\'string\', requires=IS_IN_DB(db,db.t_users_autorizados,\'%(f_email)s\'), label=T(\'Jefe de Laboratorio\')),\n    format=\'%(f_nombre)s\',\n    migrate=settings.migrate)\n\ndb.define_table(\'t_laboratorio_archive\',db.t_laboratorio,Field(\'current_record\',\'reference t_laboratorio\',readable=False,writable=False))\n\n########################################\ndb.define_table(\'t_seccion\',\n    Field(\'f_seccion\',\'string\',requires=IS_NOT_EMPTY(),label=T(\'Secci\xc3\xb3n\')),\n    Field(\'f_laboratorio\',\'string\',requires=IS_IN_DB(db,db.t_laboratorio.f_nombre,\'%(f_nombre)s\'), label=T(\'Laboratorio\')),\n    Field(\'f_jefe\',\'integer\', requires=IS_IN_DB(db,db.auth_user.id,\'%(first_name)s %(last_name)s\'), label=T(\'Jefe de Seccion\')),\n    format=\'%(f_nombre)s\'\n    )\n\n########################################\ndb.define_table(\'t_espaciofisico\',\n    Field(\'f_espacio\', \'string\', requires=IS_NOT_EMPTY(), label=T(\'Espacio\')),\n    Field(\'f_direccion\', \'string\', requires=IS_NOT_EMPTY(), label=T(\'Direccion\')),\n    Field(\'f_seccion\', \'integer\',requires=IS_IN_DB(db,db.t_seccion.id,\'%(f_laboratorio)s, seccion %(f_seccion)s\'), label=T(\'Seccion\')),\n    Field(\'f_tecnico\',\'integer\', requires=IS_IN_DB(db,db.auth_user.id,\'%(first_name)s %(last_name)s\'), label=T(\'Tecnico\')),\n    format=\'%(f_espacio)s\',\n    migrate=settings.migrate)\ndb.t_espaciofisico.id.represent= lambda value,row: str(row.f_espacio)[27:]\n\n########################################\ndb.define_table(\'t_inventario\',\n    Field(\'f_sustancia\', \'integer\', label=T(\'Sustancia\'),requires=IS_IN_DB(db,db.t_sustancias.id,\'%(f_nombre)s\')\\\n    ,represent= lambda name,row: \\\n                A(str(db(db.t_sustancias.id==name).select(db.t_sustancias.f_nombre))[22:],_href=URL(\'sustancias\',\'view_bitacora\',vars=dict(sust=row.f_sustancia,esp=row.f_espaciofisico)))),\n    Field(\'f_espaciofisico\', \'integer\',readable=False,writable=False ,requires=IS_IN_DB(db,db.t_espaciofisico.id,\'%(f_espacio)s\') ,\n    represent= lambda value,row: str(db(db.t_espaciofisico.id == value).select(db.t_espaciofisico.f_espacio))[27:],\n    label=T(\'Espaciofisico\')),\n    Field(\'f_cantidadonacion\', \'float\',default=0,label=T(\'Cantidad Donacion\'),requires=IS_FLOAT_IN_RANGE(0,1e1000)),\n    Field(\'f_cantidadusointerno\', \'float\',default=0,label=T(\'Cantidad Uso Interno\'),requires=IS_FLOAT_IN_RANGE(0,1e1000)),\n    Field(\'f_total\',\'float\',label=T(\'Cantidad Total\'),writable=False,compute=lambda r:r.f_cantidadonacion+r.f_cantidadusointerno,requires=IS_FLOAT_IN_RANGE(0,1e1000)),\n    Field(\'f_seccion\',\'integer\',readable=False,writable=False,requires=IS_IN_DB(db,db.t_seccion.id,\'%(f_seccion)s\'),label=T(\'Secci\xc3\xb3n\'),\n    compute = lambda r: long(str(db(db.t_espaciofisico.id == r.f_espaciofisico).select(db.t_espaciofisico.f_seccion))[26:]) ),\n    Field(\'f_laboratorio\',\'string\',requires=IS_IN_DB(db,db.t_laboratorio.id,\'%(f_nombre)s\'),readable=False,writable=False,\n    compute = lambda r: str( db((db.t_seccion.id == r.f_seccion)).select(db.t_seccion.f_laboratorio) )[25:-2] ),\n    format=\'%(f_sustancia)s\',\n    migrate=settings.migrate)\n\ndb.define_table(\'t_inventario_archive\',db.t_inventario,Field(\'current_record\',\'reference t_inventario\',readable=False,writable=False))\ndb.t_inventario.id.readable = False\n\n########################################\ndb.define_table(\'t_bitacora\',\n    Field(\'f_fechaingreso\',\'datetime\',label=T(\'Fecha\')),\n    Field(\'f_sustancia\', \'integer\',readable=False,writable=False,requires=IS_IN_DB(db,db.t_sustancias.id,\'%(f_nombre)s\'),\n            represent=lambda f_sustancia,row: str(db(db.t_sustancias.id == f_sustancia).select(db.t_sustancias.f_nombre))[22:],\n            notnull=True, label=T(\'Sustancia\')),\n    Field(\'f_proceso\', \'string\', notnull=True, label=T(\'Proceso\')),\n    Field(\'f_ingreso\', \'float\', default=0, label=T(\'Ingreso\'),requires=IS_FLOAT_IN_RANGE(0,1e1000)),\n    Field(\'f_consumo\', \'float\', default=0,label=T(\'Consumo\'),requires=IS_FLOAT_IN_RANGE(0,1e1000)),\n    Field(\'f_cantidad\', \'float\', label=T(\'Cantidad\'),requires=IS_FLOAT_IN_RANGE(0,1e1000),writable=False,default=0,compute=lambda r:\n    r.f_ingreso-r.f_consumo+float ( str ( db( (db.t_inventario.f_sustancia == r.f_sustancia) & (db.t_inventario.f_espaciofisico == r.f_espaciofisico) ).select(db.t_inventario.f_cantidadusointerno) )[33:]) ),\n    Field(\'f_fecha\', \'datetime\', label=T(\'FechaIngreso\'),writable=False,readable=False, default=request.now),\n    Field(\'f_espaciofisico\', \'integer\',readable=False, requires=IS_IN_DB(db,db.t_espaciofisico.id,\'%(f_espacio)s\') ,\n    writable=False, represent= lambda value,row: str(db(db.t_espaciofisico.id == value).select(db.t_espaciofisico.f_espacio))[26:],\n     label=T(\'Espacio Fisico\'),notnull=True),\n    Field(\'f_descripcion\',\'text\',label=T(\'Descripci\xc3\xb3n\'),readable=False),\n    format=\'%(f_sustancia)s\',\n    migrate=settings.migrate)\ndb.t_bitacora.id.readable = False\n\ndb.define_table(\'t_bitacora_archive\',db.t_bitacora,Field(\'current_record\',\'reference t_bitacora\',readable=False,writable=False))\n\n\n########################################\ndb.define_table(\'t_solicitud\',\n    Field(\'f_sustancia\', \'string\', label=T(\'Sustancia\')),\n    Field(\'f_espaciofisico\', \'string\', label=T(\'Espaciofisico\')),\n    Field(\'f_seccion\', \'string\', label=T(\'Seccion\')),\n    Field(\'f_responsable\', \'string\', label=T(\'Responsable\')),\n    Field(\'f_solicitador\', \'string\', label=T(\'Solicitador\')),\n    Field(\'f_cantidadsolicitada\', \'string\', label=T(\'Cantidadsolicitada\')),\n    Field(\'f_estado\', \'string\', label=T(\'Estado\')),\n    format=\'%(f_sustancia)s\',\n    migrate=settings.migrate)\n\ndb.define_table(\'t_solicitud_archive\',db.t_solicitud,Field(\'current_record\',\'reference t_solicitud\',readable=False,writable=False))\n\npopulate_db()'
p7
sS'snapshot'
p8
(dp9
S'exception'
p10
(dp11
S'__hash__'
p12
S"<method-wrapper '__hash__' of exceptions.ValueError object>"
p13
sS'__setattr__'
p14
S"<method-wrapper '__setattr__' of exceptions.ValueError object>"
p15
sS'__reduce_ex__'
p16
S'<built-in method __reduce_ex__ of exceptions.ValueError object>'
p17
sS'__getslice__'
p18
S"<method-wrapper '__getslice__' of exceptions.ValueError object>"
p19
sS'__getitem__'
p20
S"<method-wrapper '__getitem__' of exceptions.ValueError object>"
p21
sS'__setstate__'
p22
S'<built-in method __setstate__ of exceptions.ValueError object>'
p23
sS'args'
p24
S'("invalid literal for long() with base 10: \'jrodrig@usb.ve\'",)'
p25
sS'__reduce__'
p26
S'<built-in method __reduce__ of exceptions.ValueError object>'
p27
sS'__str__'
p28
S"<method-wrapper '__str__' of exceptions.ValueError object>"
p29
sS'__format__'
p30
S'<built-in method __format__ of exceptions.ValueError object>'
p31
sS'__getattribute__'
p32
S"<method-wrapper '__getattribute__' of exceptions.ValueError object>"
p33
sS'__class__'
p34
S"<type 'exceptions.ValueError'>"
p35
sS'__unicode__'
p36
S'<built-in method __unicode__ of exceptions.ValueError object>'
p37
sS'__delattr__'
p38
S"<method-wrapper '__delattr__' of exceptions.ValueError object>"
p39
sS'__subclasshook__'
p40
S'<built-in method __subclasshook__ of type object>'
p41
sS'__repr__'
p42
S"<method-wrapper '__repr__' of exceptions.ValueError object>"
p43
sS'__dict__'
p44
S'{}'
p45
sS'__sizeof__'
p46
S'<built-in method __sizeof__ of exceptions.ValueError object>'
p47
sS'__doc__'
p48
S"'Inappropriate argument value (of correct type).'"
p49
sS'__init__'
p50
S"<method-wrapper '__init__' of exceptions.ValueError object>"
p51
sS'__new__'
p52
S'<built-in method __new__ of type object>'
p53
ssS'evalue'
p54
S"invalid literal for long() with base 10: 'jrodrig@usb.ve'"
p55
sS'request'
p56
cgluon.html
XML_unpickle
p57
(S's\x08V\x00\x00<div><table><tr><td style="font-weight:bold;vertical-align:top;">ajax</td><td style="vertical-align:top;">:</td><td><div>False</div></td></tr><tr><td style="font-weight:bold;vertical-align:top;">application</td><td style="vertical-align:top;">:</td><td><div>SIGULAB</div></td></tr><tr><td style="font-weight:bold;vertical-align:top;">args</td><td style="vertical-align:top;">:</td><td><div><table></table></div></td></tr><tr><td style="font-weight:bold;vertical-align:top;">cid</td><td style="vertical-align:top;">:</td><td><div>None</div></td></tr><tr><td style="font-weight:bold;vertical-align:top;">client</td><td style="vertical-align:top;">:</td><td><div>127.0.0.1</div></td></tr><tr><td style="font-weight:bold;vertical-align:top;">controller</td><td style="vertical-align:top;">:</td><td><div>default</div></td></tr><tr><td style="font-weight:bold;vertical-align:top;">cookies</td><td style="vertical-align:top;">:</td><td><div><table><tr><td style="font-weight:bold;vertical-align:top;">session_id_admin</td><td style="vertical-align:top;">:</td><td><div>127.0.0.1-eb0584ef-b6d4-4547-b804-08344a0a845e<table><tr><td style="font-weight:bold;vertical-align:top;">comment</td><td style="vertical-align:top;">:</td><td><div></div></td></tr><tr><td style="font-weight:bold;vertical-align:top;">domain</td><td style="vertical-align:top;">:</td><td><div></div></td></tr><tr><td style="font-weight:bold;vertical-align:top;">expires</td><td style="vertical-align:top;">:</td><td><div></div></td></tr><tr><td style="font-weight:bold;vertical-align:top;">httponly</td><td style="vertical-align:top;">:</td><td><div></div></td></tr><tr><td style="font-weight:bold;vertical-align:top;">max-age</td><td style="vertical-align:top;">:</td><td><div></div></td></tr><tr><td style="font-weight:bold;vertical-align:top;">path</td><td style="vertical-align:top;">:</td><td><div></div></td></tr><tr><td style="font-weight:bold;vertical-align:top;">secure</td><td style="vertical-align:top;">:</td><td><div></div></td></tr><tr><td style="font-weight:bold;vertical-align:top;">version</td><td style="vertical-align:top;">:</td><td><div></div></td></tr></table></div></td></tr><tr><td style="font-weight:bold;vertical-align:top;">session_id_sigulab</td><td style="vertical-align:top;">:</td><td><div>127.0.0.1-90705daf-d3c4-4545-a78e-311961a8c9dd<table><tr><td style="font-weight:bold;vertical-align:top;">comment</td><td style="vertical-align:top;">:</td><td><div></div></td></tr><tr><td style="font-weight:bold;vertical-align:top;">domain</td><td style="vertical-align:top;">:</td><td><div></div></td></tr><tr><td style="font-weight:bold;vertical-align:top;">expires</td><td style="vertical-align:top;">:</td><td><div></div></td></tr><tr><td style="font-weight:bold;vertical-align:top;">httponly</td><td style="vertical-align:top;">:</td><td><div></div></td></tr><tr><td style="font-weight:bold;vertical-align:top;">max-age</td><td style="vertical-align:top;">:</td><td><div></div></td></tr><tr><td style="font-weight:bold;vertical-align:top;">path</td><td style="vertical-align:top;">:</td><td><div></div></td></tr><tr><td style="font-weight:bold;vertical-align:top;">secure</td><td style="vertical-align:top;">:</td><td><div></div></td></tr><tr><td style="font-weight:bold;vertical-align:top;">version</td><td style="vertical-align:top;">:</td><td><div></div></td></tr></table></div></td></tr></table></div></td></tr><tr><td style="font-weight:bold;vertical-align:top;">env</td><td style="vertical-align:top;">:</td><td><div><table><tr><td style="font-weight:bold;vertical-align:top;">HTTP_ACCEPT</td><td style="vertical-align:top;">:</td><td><div>text/html,application/xhtml+xml,application/xml;q=0.9,image/webp,*/*;q=0.8</div></td></tr><tr><td style="font-weight:bold;vertical-align:top;">HTTP_ACCEPT_ENCODING</td><td style="vertical-align:top;">:</td><td><div>gzip, deflate, sdch, br</div></td></tr><tr><td style="font-weight:bold;vertical-align:top;">HTTP_ACCEPT_LANGUAGE</td><td style="vertical-align:top;">:</td><td><div>es,en;q=0.8</div></td></tr><tr><td style="font-weight:bold;vertical-align:top;">HTTP_CACHE_CONTROL</td><td style="vertical-align:top;">:</td><td><div>max-age=0</div></td></tr><tr><td style="font-weight:bold;vertical-align:top;">HTTP_CONNECTION</td><td style="vertical-align:top;">:</td><td><div>keep-alive</div></td></tr><tr><td style="font-weight:bold;vertical-align:top;">HTTP_COOKIE</td><td style="vertical-align:top;">:</td><td><div>session_id_sigulab=127.0.0.1-90705daf-d3c4-4545-a78e-311961a8c9dd; session_id_admin=127.0.0.1-eb0584ef-b6d4-4547-b804-08344a0a845e</div></td></tr><tr><td style="font-weight:bold;vertical-align:top;">HTTP_DNT</td><td style="vertical-align:top;">:</td><td><div>1</div></td></tr><tr><td style="font-weight:bold;vertical-align:top;">HTTP_HOST</td><td style="vertical-align:top;">:</td><td><div>127.0.0.1:8000</div></td></tr><tr><td style="font-weight:bold;vertical-align:top;">HTTP_UPGRADE_INSECURE_REQUESTS</td><td style="vertical-align:top;">:</td><td><div>1</div></td></tr><tr><td style="font-weight:bold;vertical-align:top;">HTTP_USER_AGENT</td><td style="vertical-align:top;">:</td><td><div>Mozilla/5.0 (X11; Linux x86_64) AppleWebKit/537.36 (KHTML, like Gecko) Chrome/56.0.2924.87 Safari/537.36</div></td></tr><tr><td style="font-weight:bold;vertical-align:top;">PATH_INFO</td><td style="vertical-align:top;">:</td><td><div>/</div></td></tr><tr><td style="font-weight:bold;vertical-align:top;">QUERY_STRING</td><td style="vertical-align:top;">:</td><td><div></div></td></tr><tr><td style="font-weight:bold;vertical-align:top;">REMOTE_ADDR</td><td style="vertical-align:top;">:</td><td><div>127.0.0.1</div></td></tr><tr><td style="font-weight:bold;vertical-align:top;">REMOTE_PORT</td><td style="vertical-align:top;">:</td><td><div>49059</div></td></tr><tr><td style="font-weight:bold;vertical-align:top;">REQUEST_METHOD</td><td style="vertical-align:top;">:</td><td><div>GET</div></td></tr><tr><td style="font-weight:bold;vertical-align:top;">SCRIPT_NAME</td><td style="vertical-align:top;">:</td><td><div></div></td></tr><tr><td style="font-weight:bold;vertical-align:top;">SERVER_NAME</td><td style="vertical-align:top;">:</td><td><div>adolfo-PC</div></td></tr><tr><td style="font-weight:bold;vertical-align:top;">SERVER_PORT</td><td style="vertical-align:top;">:</td><td><div>8000</div></td></tr><tr><td style="font-weight:bold;vertical-align:top;">SERVER_PROTOCOL</td><td style="vertical-align:top;">:</td><td><div>HTTP/1.1</div></td></tr><tr><td style="font-weight:bold;vertical-align:top;">SERVER_SOFTWARE</td><td style="vertical-align:top;">:</td><td><div>Rocket 1.2.6</div></td></tr><tr><td style="font-weight:bold;vertical-align:top;">app_folders</td><td style="vertical-align:top;">:</td><td><div>set([&#x27;/home/adolfo/Desktop/PROYECTO ULAB/applications/admin/&#x27;, &#x27;/home/adolfo/Desktop/PROYECTO ULAB/applications/SIGULAB/&#x27;])</div></td></tr><tr><td style="font-weight:bold;vertical-align:top;">applications_parent</td><td style="vertical-align:top;">:</td><td><div>/home/adolfo/Desktop/PROYECTO ULAB</div></td></tr><tr><td style="font-weight:bold;vertical-align:top;">cmd_args</td><td style="vertical-align:top;">:</td><td><div><table></table></div></td></tr><tr><td style="font-weight:bold;vertical-align:top;">cmd_options</td><td style="vertical-align:top;">:</td><td><div>&lt;Values at 0x7ff6e9f21680: {&#x27;verbose&#x27;: False, &#x27;ip&#x27;: &#x27;127.0.0.1&#x27;, &#x27;debuglevel&#x27;: 30, &#x27;with_scheduler&#x27;: False, &#x27;shutdown_timeout&#x27;: 5, &#x27;taskbar&#x27;: False, &#x27;with_coverage&#x27;: False, &#x27;pid_filename&#x27;: &#x27;httpserver.pid&#x27;, &#x27;maxthreads&#x27;: None, &#x27;softcron&#x27;: False, &#x27;server_name&#x27;: &#x27;adolfo-PC&#x27;, &#x27;bpython&#x27;: False, &#x27;nogui&#x27;: False, &#x27;port&#x27;: 8000, &#x27;print_errors&#x27;: False, &#x27;extcron&#x27;: False, &#x27;runcron&#x27;: False, &#x27;run_system_tests&#x27;: False, &#x27;test&#x27;: None, &#x27;folder&#x27;: &#x27;/home/adolfo/Desktop/PROYECTO ULAB&#x27;, &#x27;config&#x27;: &#x27;&#x27;, &#x27;minthreads&#x27;: None, &#x27;shell&#x27;: None, &#x27;run&#x27;: &#x27;&#x27;, &#x27;log_filename&#x27;: &#x27;httpserver.log&#x27;, &#x27;profiler_dir&#x27;: None, &#x27;args&#x27;: [&#x27;&#x27;], &#x27;socket_timeout&#x27;: 5, &#x27;ssl_ca_certificate&#x27;: None, &#x27;scheduler&#x27;: None, &#x27;interfaces&#x27;: None, &#x27;ssl_private_key&#x27;: &#x27;&#x27;, &#x27;gae&#x27;: None, &#x27;password&#x27;: &#x27;******&#x27;, &#x27;request_queue_size&#x27;: 5, &#x27;ssl_certificate&#x27;: &#x27;&#x27;, &#x27;cronjob&#x27;: False, &#x27;numthreads&#x27;: None, &#x27;quiet&#x27;: False, &#x27;import_models&#x27;: False, &#x27;timeout&#x27;: 10, &#x27;plain&#x27;: False, &#x27;nobanner&#x27;: False}&gt;</div></td></tr><tr><td style="font-weight:bold;vertical-align:top;">db_sessions</td><td style="vertical-align:top;">:</td><td><div>set([])</div></td></tr><tr><td style="font-weight:bold;vertical-align:top;">debugging</td><td style="vertical-align:top;">:</td><td><div>False</div></td></tr><tr><td style="font-weight:bold;vertical-align:top;">gluon_parent</td><td style="vertical-align:top;">:</td><td><div>/home/adolfo/Desktop/PROYECTO ULAB</div></td></tr><tr><td style="font-weight:bold;vertical-align:top;">http_accept</td><td style="vertical-align:top;">:</td><td><div>text/html,application/xhtml+xml,application/xml;q=0.9,image/webp,*/*;q=0.8</div></td></tr><tr><td style="font-weight:bold;vertical-align:top;">http_accept_encoding</td><td style="vertical-align:top;">:</td><td><div>gzip, deflate, sdch, br</div></td></tr><tr><td style="font-weight:bold;vertical-align:top;">http_accept_language</td><td style="vertical-align:top;">:</td><td><div>es,en;q=0.8</div></td></tr><tr><td style="font-weight:bold;vertical-align:top;">http_cache_control</td><td style="vertical-align:top;">:</td><td><div>max-age=0</div></td></tr><tr><td style="font-weight:bold;vertical-align:top;">http_connection</td><td style="vertical-align:top;">:</td><td><div>keep-alive</div></td></tr><tr><td style="font-weight:bold;vertical-align:top;">http_cookie</td><td style="vertical-align:top;">:</td><td><div>session_id_sigulab=127.0.0.1-90705daf-d3c4-4545-a78e-311961a8c9dd; session_id_admin=127.0.0.1-eb0584ef-b6d4-4547-b804-08344a0a845e</div></td></tr><tr><td style="font-weight:bold;vertical-align:top;">http_dnt</td><td style="vertical-align:top;">:</td><td><div>1</div></td></tr><tr><td style="font-weight:bold;vertical-align:top;">http_host</td><td style="vertical-align:top;">:</td><td><div>127.0.0.1:8000</div></td></tr><tr><td style="font-weight:bold;vertical-align:top;">http_upgrade_insecure_requests</td><td style="vertical-align:top;">:</td><td><div>1</div></td></tr><tr><td style="font-weight:bold;vertical-align:top;">http_user_agent</td><td style="vertical-align:top;">:</td><td><div>Mozilla/5.0 (X11; Linux x86_64) AppleWebKit/537.36 (KHTML, like Gecko) Chrome/56.0.2924.87 Safari/537.36</div></td></tr><tr><td style="font-weight:bold;vertical-align:top;">is_jython</td><td style="vertical-align:top;">:</td><td><div>False</div></td></tr><tr><td style="font-weight:bold;vertical-align:top;">is_pypy</td><td style="vertical-align:top;">:</td><td><div>False</div></td></tr><tr><td style="font-weight:bold;vertical-align:top;">is_source</td><td style="vertical-align:top;">:</td><td><div>True</div></td></tr><tr><td style="font-weight:bold;vertical-align:top;">local_hosts</td><td style="vertical-align:top;">:</td><td><div><table><tr><td><div>127.0.1.1</div></td></tr><tr><td><div>::1</div></td></tr><tr><td><div>adolfo-PC</div></td></tr><tr><td><div>::ffff:127.0.0.1</div></td></tr><tr><td><div>127.0.0.1</div></td></tr></table></div></td></tr><tr><td style="font-weight:bold;vertical-align:top;">path_info</td><td style="vertical-align:top;">:</td><td><div>/</div></td></tr><tr><td style="font-weight:bold;vertical-align:top;">query_string</td><td style="vertical-align:top;">:</td><td><div></div></td></tr><tr><td style="font-weight:bold;vertical-align:top;">remote_addr</td><td style="vertical-align:top;">:</td><td><div>127.0.0.1</div></td></tr><tr><td style="font-weight:bold;vertical-align:top;">remote_port</td><td style="vertical-align:top;">:</td><td><div>49059</div></td></tr><tr><td style="font-weight:bold;vertical-align:top;">request_method</td><td style="vertical-align:top;">:</td><td><div>GET</div></td></tr><tr><td style="font-weight:bold;vertical-align:top;">request_uri</td><td style="vertical-align:top;">:</td><td><div>/SIGULAB/default/index</div></td></tr><tr><td style="font-weight:bold;vertical-align:top;">script_name</td><td style="vertical-align:top;">:</td><td><div></div></td></tr><tr><td style="font-weight:bold;vertical-align:top;">server_name</td><td style="vertical-align:top;">:</td><td><div>adolfo-PC</div></td></tr><tr><td style="font-weight:bold;vertical-align:top;">server_port</td><td style="vertical-align:top;">:</td><td><div>8000</div></td></tr><tr><td style="font-weight:bold;vertical-align:top;">server_protocol</td><td style="vertical-align:top;">:</td><td><div>HTTP/1.1</div></td></tr><tr><td style="font-weight:bold;vertical-align:top;">server_software</td><td style="vertical-align:top;">:</td><td><div>Rocket 1.2.6</div></td></tr><tr><td style="font-weight:bold;vertical-align:top;">web2py_original_uri</td><td style="vertical-align:top;">:</td><td><div>/</div></td></tr><tr><td style="font-weight:bold;vertical-align:top;">web2py_path</td><td style="vertical-align:top;">:</td><td><div>/home/adolfo/Desktop/PROYECTO ULAB</div></td></tr><tr><td style="font-weight:bold;vertical-align:top;">web2py_version</td><td style="vertical-align:top;">:</td><td><div>2.14.6-stable+timestamp.2016.05.10.00.21.47</div></td></tr><tr><td style="font-weight:bold;vertical-align:top;">wsgi.errors</td><td style="vertical-align:top;">:</td><td><div>&lt;open file &#x27;&lt;stderr&gt;&#x27;, mode &#x27;w&#x27; at 0x7ff6f4ced1e0&gt;</div></td></tr><tr><td style="font-weight:bold;vertical-align:top;">wsgi.file_wrapper</td><td style="vertical-align:top;">:</td><td><div>&lt;class wsgiref.util.FileWrapper at 0x7ff6e9fd2120&gt;</div></td></tr><tr><td style="font-weight:bold;vertical-align:top;">wsgi.input</td><td style="vertical-align:top;">:</td><td><div>&lt;socket._fileobject object at 0x7ff6a7486950&gt;</div></td></tr><tr><td style="font-weight:bold;vertical-align:top;">wsgi.multiprocess</td><td style="vertical-align:top;">:</td><td><div>False</div></td></tr><tr><td style="font-weight:bold;vertical-align:top;">wsgi.multithread</td><td style="vertical-align:top;">:</td><td><div>True</div></td></tr><tr><td style="font-weight:bold;vertical-align:top;">wsgi.run_once</td><td style="vertical-align:top;">:</td><td><div>False</div></td></tr><tr><td style="font-weight:bold;vertical-align:top;">wsgi.url_scheme</td><td style="vertical-align:top;">:</td><td><div>http</div></td></tr><tr><td style="font-weight:bold;vertical-align:top;">wsgi.version</td><td style="vertical-align:top;">:</td><td><div><table><tr><td><div>1</div></td></tr><tr><td><div>0</div></td></tr></table></div></td></tr><tr><td style="font-weight:bold;vertical-align:top;">wsgi_errors</td><td style="vertical-align:top;">:</td><td><div>&lt;open file &#x27;&lt;stderr&gt;&#x27;, mode &#x27;w&#x27; at 0x7ff6f4ced1e0&gt;</div></td></tr><tr><td style="font-weight:bold;vertical-align:top;">wsgi_file_wrapper</td><td style="vertical-align:top;">:</td><td><div>&lt;class wsgiref.util.FileWrapper at 0x7ff6e9fd2120&gt;</div></td></tr><tr><td style="font-weight:bold;vertical-align:top;">wsgi_input</td><td style="vertical-align:top;">:</td><td><div>&lt;socket._fileobject object at 0x7ff6a7486950&gt;</div></td></tr><tr><td style="font-weight:bold;vertical-align:top;">wsgi_multiprocess</td><td style="vertical-align:top;">:</td><td><div>False</div></td></tr><tr><td style="font-weight:bold;vertical-align:top;">wsgi_multithread</td><td style="vertical-align:top;">:</td><td><div>True</div></td></tr><tr><td style="font-weight:bold;vertical-align:top;">wsgi_run_once</td><td style="vertical-align:top;">:</td><td><div>False</div></td></tr><tr><td style="font-weight:bold;vertical-align:top;">wsgi_url_scheme</td><td style="vertical-align:top;">:</td><td><div>http</div></td></tr><tr><td style="font-weight:bold;vertical-align:top;">wsgi_version</td><td style="vertical-align:top;">:</td><td><div><table><tr><td><div>1</div></td></tr><tr><td><div>0</div></td></tr></table></div></td></tr></table></div></td></tr><tr><td style="font-weight:bold;vertical-align:top;">extension</td><td style="vertical-align:top;">:</td><td><div>html</div></td></tr><tr><td style="font-weight:bold;vertical-align:top;">folder</td><td style="vertical-align:top;">:</td><td><div>/home/adolfo/Desktop/PROYECTO ULAB/applications/SIGULAB/</div></td></tr><tr><td style="font-weight:bold;vertical-align:top;">function</td><td style="vertical-align:top;">:</td><td><div>index</div></td></tr><tr><td style="font-weight:bold;vertical-align:top;">global_settings</td><td style="vertical-align:top;">:</td><td><div><table><tr><td style="font-weight:bold;vertical-align:top;">app_folders</td><td style="vertical-align:top;">:</td><td><div>set([&#x27;/home/adolfo/Desktop/PROYECTO ULAB/applications/admin/&#x27;, &#x27;/home/adolfo/Desktop/PROYECTO ULAB/applications/SIGULAB/&#x27;])</div></td></tr><tr><td style="font-weight:bold;vertical-align:top;">applications_parent</td><td style="vertical-align:top;">:</td><td><div>/home/adolfo/Desktop/PROYECTO ULAB</div></td></tr><tr><td style="font-weight:bold;vertical-align:top;">cmd_args</td><td style="vertical-align:top;">:</td><td><div><table></table></div></td></tr><tr><td style="font-weight:bold;vertical-align:top;">cmd_options</td><td style="vertical-align:top;">:</td><td><div>&lt;Values at 0x7ff6e9f21680: {&#x27;verbose&#x27;: False, &#x27;ip&#x27;: &#x27;127.0.0.1&#x27;, &#x27;debuglevel&#x27;: 30, &#x27;with_scheduler&#x27;: False, &#x27;shutdown_timeout&#x27;: 5, &#x27;taskbar&#x27;: False, &#x27;with_coverage&#x27;: False, &#x27;pid_filename&#x27;: &#x27;httpserver.pid&#x27;, &#x27;maxthreads&#x27;: None, &#x27;softcron&#x27;: False, &#x27;server_name&#x27;: &#x27;adolfo-PC&#x27;, &#x27;bpython&#x27;: False, &#x27;nogui&#x27;: False, &#x27;port&#x27;: 8000, &#x27;print_errors&#x27;: False, &#x27;extcron&#x27;: False, &#x27;runcron&#x27;: False, &#x27;run_system_tests&#x27;: False, &#x27;test&#x27;: None, &#x27;folder&#x27;: &#x27;/home/adolfo/Desktop/PROYECTO ULAB&#x27;, &#x27;config&#x27;: &#x27;&#x27;, &#x27;minthreads&#x27;: None, &#x27;shell&#x27;: None, &#x27;run&#x27;: &#x27;&#x27;, &#x27;log_filename&#x27;: &#x27;httpserver.log&#x27;, &#x27;profiler_dir&#x27;: None, &#x27;args&#x27;: [&#x27;&#x27;], &#x27;socket_timeout&#x27;: 5, &#x27;ssl_ca_certificate&#x27;: None, &#x27;scheduler&#x27;: None, &#x27;interfaces&#x27;: None, &#x27;ssl_private_key&#x27;: &#x27;&#x27;, &#x27;gae&#x27;: None, &#x27;password&#x27;: &#x27;******&#x27;, &#x27;request_queue_size&#x27;: 5, &#x27;ssl_certificate&#x27;: &#x27;&#x27;, &#x27;cronjob&#x27;: False, &#x27;numthreads&#x27;: None, &#x27;quiet&#x27;: False, &#x27;import_models&#x27;: False, &#x27;timeout&#x27;: 10, &#x27;plain&#x27;: False, &#x27;nobanner&#x27;: False}&gt;</div></td></tr><tr><td style="font-weight:bold;vertical-align:top;">db_sessions</td><td style="vertical-align:top;">:</td><td><div>set([])</div></td></tr><tr><td style="font-weight:bold;vertical-align:top;">debugging</td><td style="vertical-align:top;">:</td><td><div>False</div></td></tr><tr><td style="font-weight:bold;vertical-align:top;">gluon_parent</td><td style="vertical-align:top;">:</td><td><div>/home/adolfo/Desktop/PROYECTO ULAB</div></td></tr><tr><td style="font-weight:bold;vertical-align:top;">is_jython</td><td style="vertical-align:top;">:</td><td><div>False</div></td></tr><tr><td style="font-weight:bold;vertical-align:top;">is_pypy</td><td style="vertical-align:top;">:</td><td><div>False</div></td></tr><tr><td style="font-weight:bold;vertical-align:top;">is_source</td><td style="vertical-align:top;">:</td><td><div>True</div></td></tr><tr><td style="font-weight:bold;vertical-align:top;">local_hosts</td><td style="vertical-align:top;">:</td><td><div><table><tr><td><div>127.0.1.1</div></td></tr><tr><td><div>::1</div></td></tr><tr><td><div>adolfo-PC</div></td></tr><tr><td><div>::ffff:127.0.0.1</div></td></tr><tr><td><div>127.0.0.1</div></td></tr></table></div></td></tr><tr><td style="font-weight:bold;vertical-align:top;">web2py_version</td><td style="vertical-align:top;">:</td><td><div>2.14.6-stable+timestamp.2016.05.10.00.21.47</div></td></tr></table></div></td></tr><tr><td style="font-weight:bold;vertical-align:top;">is_https</td><td style="vertical-align:top;">:</td><td><div>False</div></td></tr><tr><td style="font-weight:bold;vertical-align:top;">is_local</td><td style="vertical-align:top;">:</td><td><div>True</div></td></tr><tr><td style="font-weight:bold;vertical-align:top;">is_restful</td><td style="vertical-align:top;">:</td><td><div>False</div></td></tr><tr><td style="font-weight:bold;vertical-align:top;">is_scheduler</td><td style="vertical-align:top;">:</td><td><div>False</div></td></tr><tr><td style="font-weight:bold;vertical-align:top;">is_shell</td><td style="vertical-align:top;">:</td><td><div>False</div></td></tr><tr><td style="font-weight:bold;vertical-align:top;">now</td><td style="vertical-align:top;">:</td><td><div>datetime.datetime(2017, 2, 13, 17, 29, 25, 640958)</div></td></tr><tr><td style="font-weight:bold;vertical-align:top;">url</td><td style="vertical-align:top;">:</td><td><div>/</div></td></tr><tr><td style="font-weight:bold;vertical-align:top;">utcnow</td><td style="vertical-align:top;">:</td><td><div>datetime.datetime(2017, 2, 13, 21, 29, 25, 641027)</div></td></tr><tr><td style="font-weight:bold;vertical-align:top;">wsgi</td><td style="vertical-align:top;">:</td><td><div>&lt;gluon.main.LazyWSGI object at 0x7ff6bd345790&gt;</div></td></tr></table></div>'
tRp58
sS'frames'
p59
(lp60
(dp61
S'file'
p62
S'/home/adolfo/Desktop/PROYECTO ULAB/gluon/restricted.py'
p63
sS'dump'
p64
(dp65
S'environment'
p66
S"{'A': <class 'gluon.html.A'>, 'ANY_OF': <class 'gluon.validators.ANY_OF'>, 'ASSIGNJS': <function ASSIGNJS>, 'AppConfig': <function AppConfig>, 'Auth': <class 'gluon.tools.Auth'>, 'B': <class 'gluon.html.B'>, 'BEAUTIFY': <class 'gluon.html.BEAUTIFY'>, 'BODY': <class 'gluon.html.BODY'>, 'BR': <class 'gluon.html.BR'>, 'BUTTON': <class 'gluon.html.BUTTON'>, ...}"
p67
sS'ccode'
p68
S'<code object <module> at 0x7ff6bd370ab0, file "/...lications/SIGULAB/models/tablas_base.py", line 4>'
p69
ssS'lnum'
p70
I227
sS'lines'
p71
(dp72
I224
S'            ccode = code'
p73
sI225
S'        else:'
p74
sI226
S'            ccode = compile2(code, layer)'
p75
sI227
S'        exec ccode in environment'
p76
sI228
S'    except HTTP:'
p77
sI229
S'        raise'
p78
sI230
S'    except RestrictedError:'
p79
sI231
S'        # do not encapsulate (obfuscate) the original RestrictedError'
p80
sI222
S'    try:'
p81
sI223
S'        if isinstance(code, types.CodeType):'
p82
ssS'call'
p83
S'(code="### we prepend t_ to tablenames and f_ to fieldn...d\',readable=False,writable=False))\\n\\npopulate_db()", environment={\'A\': <class \'gluon.html.A\'>, \'ANY_OF\': <class \'gluon.validators.ANY_OF\'>, \'ASSIGNJS\': <function ASSIGNJS>, \'AppConfig\': <function AppConfig>, \'Auth\': <class \'gluon.tools.Auth\'>, \'B\': <class \'gluon.html.B\'>, \'BEAUTIFY\': <class \'gluon.html.BEAUTIFY\'>, \'BODY\': <class \'gluon.html.BODY\'>, \'BR\': <class \'gluon.html.BR\'>, \'BUTTON\': <class \'gluon.html.BUTTON\'>, ...}, layer=\'/home/adolfo/Desktop/PROYECTO ULAB/applications/SIGULAB/models/tablas_base.py\')'
p84
sS'func'
p85
S'restricted'
p86
sa(dp87
g62
S'/home/adolfo/Desktop/PROYECTO ULAB/applications/SIGULAB/models/tablas_base.py'
p88
sg64
(dp89
S'populate_db'
p90
S'<function populate_db>'
p91
ssg70
I226
sg71
(dp92
I224
S"db.define_table('t_solicitud_archive',db.t_solicitud,Field('current_record','reference t_solicitud',readable=False,writable=False))"
p93
sI225
S''
sI226
S'populate_db()'
p94
sI217
S"    Field('f_responsable', 'string', label=T('Responsable')),"
p95
sI218
S"    Field('f_solicitador', 'string', label=T('Solicitador')),"
p96
sI219
S"    Field('f_cantidadsolicitada', 'string', label=T('Cantidadsolicitada')),"
p97
sI220
S"    Field('f_estado', 'string', label=T('Estado')),"
p98
sI221
S"    format='%(f_sustancia)s',"
p99
sI222
S'    migrate=settings.migrate)'
p100
sI223
S''
ssg83
S'()'
p101
sg85
S'<module>'
p102
sa(dp103
g62
S'/home/adolfo/Desktop/PROYECTO ULAB/applications/SIGULAB/models/populate.py'
p104
sg64
(dp105
S'f_jefe'
p106
S'undefined'
p107
sS'f_laboratorio'
p108
g107
sS'db.t_seccion'
p109
S'<Table t_seccion (id, f_seccion, f_laboratorio, f_jefe)>'
p110
sS'f_seccion'
p111
g107
sS'global db'
p112
S'<DAL uri="postgres:******@localhost/sigulab2">'
p113
sS'db.t_seccion.insert'
p114
S'<bound method Table.insert of <Table t_seccion (id, f_seccion, f_laboratorio, f_jefe)>>'
p115
ssg70
I232
sg71
(dp116
I227
S"    db.t_laboratorio.insert(f_nombre='LaboratorioE',f_jefe='eprato@usb.ve')"
p117
sI228
S"    db.t_laboratorio.insert(f_nombre='LaboratorioF',f_jefe='wsequera@usb.ve')"
p118
sI229
S"    db.t_laboratorio.insert(f_nombre='LaboratorioG',f_jefe='chickani@usb.ve')"
p119
sI230
S''
sI231
S'    ##Secciones'
p120
sI232
S"    db.t_seccion.insert(f_seccion='Alta Tensi\xc3\xb3n',f_laboratorio='LaboratorioA',f_jefe='jrodrig@usb.ve')"
p121
sI233
S"    db.t_seccion.insert(f_seccion='Conversi\xc3\xb3n de Energ\xc3\xada El\xc3\xa9ctrica',f_laboratorio='LaboratorioA',f_jefe='jwrengifo@usb.ve')"
p122
sI234
S"    db.t_seccion.insert(f_seccion='Conversi\xc3\xb3n de Energ\xc3\xada Mec\xc3\xa1nica',f_laboratorio='LaboratorioA',f_jefe='antoniovidal@usb.ve')"
p123
sI235
S"    db.t_seccion.insert(f_seccion='Desarrollo de Modelos y Prototipos',f_laboratorio='LaboratorioA',f_jefe='jrodrig@usb.ve')"
p124
sI236
S"    db.t_seccion.insert(f_seccion='Din\xc3\xa1mica de M\xc3\xa1quinas',f_laboratorio='LaboratorioA',f_jefe='sdiaz@usb.ve')"
p125
ssg83
S'()'
p126
sg85
S'populate_db'
p127
sa(dp128
g62
S'/home/adolfo/Desktop/PROYECTO ULAB/gluon/packages/dal/pydal/objects.py'
p129
sg64
(dp130
S'self._listify'
p131
S'<bound method Table._listify of <Table t_seccion (id, f_seccion, f_laboratorio, f_jefe)>>'
p132
sS'fields'
p133
S"{'f_jefe': 'jrodrig@usb.ve', 'f_laboratorio': 'LaboratorioA', 'f_seccion': 'Alta Tensi\\xc3\\xb3n'}"
p134
sS'self'
p135
S'<Table t_seccion (id, f_seccion, f_laboratorio, f_jefe)>'
p136
sS'ret'
p137
g107
sS'self._db._adapter'
p138
S'<pydal.adapters.postgres.PostgreSQLAdapter object>'
p139
sS'self._db._adapter.insert'
p140
S'<bound method PostgreSQLAdapter.insert of <pydal.adapters.postgres.PostgreSQLAdapter object>>'
p141
sS'self._db'
p142
S'<DAL uri="postgres:******@localhost/sigulab2">'
p143
ssg70
I726
sg71
(dp144
I721
S'    def insert(self, **fields):'
p145
sI722
S'        fields = self._defaults(fields)'
p146
sI723
S'        self._attempt_upload(fields)'
p147
sI724
S'        if any(f(fields) for f in self._before_insert):'
p148
sI725
S'            return 0'
p149
sI726
S'        ret = self._db._adapter.insert(self, self._listify(fields))'
p150
sI727
S'        if ret and self._after_insert:'
p151
sI728
S'            fields = Row(fields)'
p152
sI729
S'            [f(fields, ret) for f in self._after_insert]'
p153
sI730
S'        return ret'
p154
ssg83
S"(self=<Table t_seccion (id, f_seccion, f_laboratorio, f_jefe)>, **fields={'f_jefe': 'jrodrig@usb.ve', 'f_laboratorio': 'LaboratorioA', 'f_seccion': 'Alta Tensi\\xc3\\xb3n'})"
p155
sg85
S'insert'
p156
sa(dp157
g62
S'/home/adolfo/Desktop/PROYECTO ULAB/gluon/packages/dal/pydal/adapters/base.py'
p158
sg64
(dp159
S'self._insert'
p160
S'<bound method PostgreSQLAdapter._insert of <pydal.adapters.postgres.PostgreSQLAdapter object>>'
p161
sS'query'
p162
g107
sS'self'
p163
S'<pydal.adapters.postgres.PostgreSQLAdapter object>'
p164
sS'fields'
p165
S"[(<pydal.objects.Field object>, 'Alta Tensi\\xc3\\xb3n'), (<pydal.objects.Field object>, 'jrodrig@usb.ve'), (<pydal.objects.Field object>, 'LaboratorioA')]"
p166
sS'table'
p167
S'<Table t_seccion (id, f_seccion, f_laboratorio, f_jefe)>'
p168
ssg70
I739
sg71
(dp169
I736
S"        return 'INSERT INTO %s DEFAULT VALUES;' % (table.sqlsafe)"
p170
sI737
S''
sI738
S'    def insert(self, table, fields):'
p171
sI739
S'        query = self._insert(table,fields)'
p172
sI740
S'        try:'
p173
sI741
S'            self.execute(query)'
p174
sI742
S'        except Exception:'
p175
sI743
S'            e = sys.exc_info()[1]'
p176
sI734
S''
sI735
S'    def _insert_empty(self, table):'
p177
ssg83
S"(self=<pydal.adapters.postgres.PostgreSQLAdapter object>, table=<Table t_seccion (id, f_seccion, f_laboratorio, f_jefe)>, fields=[(<pydal.objects.Field object>, 'Alta Tensi\\xc3\\xb3n'), (<pydal.objects.Field object>, 'jrodrig@usb.ve'), (<pydal.objects.Field object>, 'LaboratorioA')])"
p178
sg85
g156
sa(dp179
g62
S'/home/adolfo/Desktop/PROYECTO ULAB/gluon/packages/dal/pydal/adapters/postgres.py'
p180
sg64
(dp181
S'f'
g107
sS'fields'
p182
S"[(<pydal.objects.Field object>, 'Alta Tensi\\xc3\\xb3n'), (<pydal.objects.Field object>, 'jrodrig@usb.ve'), (<pydal.objects.Field object>, 'LaboratorioA')]"
p183
sS'self'
p184
S'<pydal.adapters.postgres.PostgreSQLAdapter object>'
p185
sS'values'
p186
g107
sS'v'
g107
sS'self.expand'
p187
S'<bound method PostgreSQLAdapter.expand of <pydal.adapters.postgres.PostgreSQLAdapter object>>'
p188
ssg70
I167
sg71
(dp189
I162
S''
sI163
S'    def _insert(self, table, fields):'
p190
sI164
S'        table_rname = table.sqlsafe'
p191
sI165
S'        if fields:'
p192
sI166
S"            keys = ','.join(f.sqlsafe_name for f, v in fields)"
p193
sI167
S"            values = ','.join(self.expand(v, f.type) for f, v in fields)"
p194
sI168
S"            if hasattr(table, '_id'):"
p195
sI169
S'                self._last_insert = (table._id, 1)'
p196
sI170
S"                return 'INSERT INTO %s(%s) VALUES (%s) RETURNING %s;' % ("
p197
sI171
S'                    table_rname, keys, values, self.QUOTE_TEMPLATE % table._id.name)'
p198
ssg83
S"(self=<pydal.adapters.postgres.PostgreSQLAdapter object>, table=<Table t_seccion (id, f_seccion, f_laboratorio, f_jefe)>, fields=[(<pydal.objects.Field object>, 'Alta Tensi\\xc3\\xb3n'), (<pydal.objects.Field object>, 'jrodrig@usb.ve'), (<pydal.objects.Field object>, 'LaboratorioA')])"
p199
sg85
S'_insert'
p200
sa(dp201
g62
S'/home/adolfo/Desktop/PROYECTO ULAB/gluon/packages/dal/pydal/adapters/postgres.py'
p202
sg64
(dp203
S'f'
S'<pydal.objects.Field object>'
p204
sS'fields'
p205
g107
sS'self'
p206
S'<pydal.adapters.postgres.PostgreSQLAdapter object>'
p207
sS'f.type'
p208
S"'integer'"
p209
sS'values'
p210
g107
sS'v'
S"'jrodrig@usb.ve'"
p211
sS'self.expand'
p212
S'<bound method PostgreSQLAdapter.expand of <pydal.adapters.postgres.PostgreSQLAdapter object>>'
p213
ssg70
I167
sg71
(dp214
I162
S''
sI163
S'    def _insert(self, table, fields):'
p215
sI164
S'        table_rname = table.sqlsafe'
p216
sI165
S'        if fields:'
p217
sI166
S"            keys = ','.join(f.sqlsafe_name for f, v in fields)"
p218
sI167
S"            values = ','.join(self.expand(v, f.type) for f, v in fields)"
p219
sI168
S"            if hasattr(table, '_id'):"
p220
sI169
S'                self._last_insert = (table._id, 1)'
p221
sI170
S"                return 'INSERT INTO %s(%s) VALUES (%s) RETURNING %s;' % ("
p222
sI171
S'                    table_rname, keys, values, self.QUOTE_TEMPLATE % table._id.name)'
p223
ssg83
S"((f=<pydal.objects.Field object>, v='jrodrig@usb.ve'))"
p224
sg85
S'<genexpr>'
p225
sa(dp226
g62
S'/home/adolfo/Desktop/PROYECTO ULAB/gluon/packages/dal/pydal/adapters/base.py'
p227
sg64
(dp228
S'self.represent'
p229
S'<bound method PostgreSQLAdapter.represent of <pydal.adapters.postgres.PostgreSQLAdapter object>>'
p230
sS'rv'
p231
g107
sS'expression'
p232
S"'jrodrig@usb.ve'"
p233
sS'self'
p234
S'<pydal.adapters.postgres.PostgreSQLAdapter object>'
p235
sS'field_type'
p236
S"'integer'"
p237
ssg70
I962
sg71
(dp238
I960
S'                rv = op()'
p239
sI961
S'        elif field_type:'
p240
sI962
S'            rv = self.represent(expression, field_type)'
p241
sI963
S'        elif isinstance(expression, (list, tuple)):'
p242
sI964
S"            rv = ','.join(self.represent(item, field_type)"
p243
sI965
S'                          for item in expression)'
p244
sI966
S'        elif isinstance(expression, bool):'
p245
sI957
S'                    op = op[:-1]'
p246
sI958
S"                rv = '(%s)' % op"
p247
sI959
S'            else:'
p248
ssg83
S"(self=<pydal.adapters.postgres.PostgreSQLAdapter object>, expression='jrodrig@usb.ve', field_type='integer', colnames=False)"
p249
sg85
S'expand'
p250
sa(dp251
g62
S'/home/adolfo/Desktop/PROYECTO ULAB/gluon/packages/dal/pydal/adapters/postgres.py'
p252
sg64
(dp253
S'self'
p254
S'<pydal.adapters.postgres.PostgreSQLAdapter object>'
p255
sS'BaseAdapter.represent'
p256
S'<unbound method BaseAdapter.represent>'
p257
sS'obj'
p258
S"'jrodrig@usb.ve'"
p259
sS'fieldtype'
p260
S"'integer'"
p261
sS'global BaseAdapter'
p262
S"<class 'pydal.adapters.base.BaseAdapter'>"
p263
ssg70
I351
sg71
(dp264
I352
S''
sI353
S"    def _drop(self, table, mode='restrict'):"
p265
sI354
S"        if mode not in ['restrict', 'cascade', '']:"
p266
sI355
S"            raise ValueError('Invalid mode: %s' % mode)"
p267
sI346
S"            elif field_is_type('geography'):"
p268
sI347
S'                value = "ST_GeogFromText(\'SRID=%s;%s\')" %(srid, obj)'
p269
sI348
S'#             else:'
p270
sI349
S"#                 raise SyntaxError('Invalid field type %s' %fieldtype)"
p271
sI350
S'            return value'
p272
sI351
S'        return BaseAdapter.represent(self, obj, fieldtype)'
p273
ssg83
S"(self=<pydal.adapters.postgres.PostgreSQLAdapter object>, obj='jrodrig@usb.ve', fieldtype='integer')"
p274
sg85
S'represent'
p275
sa(dp276
g62
S'/home/adolfo/Desktop/PROYECTO ULAB/gluon/packages/dal/pydal/adapters/base.py'
p277
sg64
(dp278
S'builtinstr'
p279
S"<type 'str'>"
p280
sS'global long'
p281
S"<type 'long'>"
p282
sS'obj'
p283
S"'jrodrig@usb.ve'"
p284
ssg70
I1435
sg71
(dp285
I1430
S"            if obj and not str(obj)[:1].upper() in '0F':"
p286
sI1431
S'                return self.smart_adapt(self.TRUE)'
p287
sI1432
S'            else:'
p288
sI1433
S'                return self.smart_adapt(self.FALSE)'
p289
sI1434
S"        if fieldtype == 'id' or fieldtype == 'integer':"
p290
sI1435
S'            return str(long(obj))'
p291
sI1436
S"        if field_is_type('decimal'):"
p292
sI1437
S'            return str(obj)'
p293
sI1438
S"        elif field_is_type('reference'): # reference"
p294
sI1439
S'            # check for tablename first'
p295
ssg83
S"(self=<pydal.adapters.postgres.PostgreSQLAdapter object>, obj='jrodrig@usb.ve', fieldtype='integer')"
p296
sg85
g275
sasS'pyver'
p297
S'Python 2.7.12: /usr/bin/python (prefix: /usr)'
p298
sS'session'
p299
g57
(S's\xfb\t\x00\x00<div><table><tr><td style="font-weight:bold;vertical-align:top;">auth</td><td style="vertical-align:top;">:</td><td><div><table><tr><td style="font-weight:bold;vertical-align:top;">expiration</td><td style="vertical-align:top;">:</td><td><div>3600</div></td></tr><tr><td style="font-weight:bold;vertical-align:top;">hmac_key</td><td style="vertical-align:top;">:</td><td><div>9d352aeb-f308-4f3c-bdeb-a498650c1e0d</div></td></tr><tr><td style="font-weight:bold;vertical-align:top;">last_visit</td><td style="vertical-align:top;">:</td><td><div>datetime.datetime(2017, 2, 13, 17, 29, 25, 640958)</div></td></tr><tr><td style="font-weight:bold;vertical-align:top;">remember_me</td><td style="vertical-align:top;">:</td><td><div>False</div></td></tr><tr><td style="font-weight:bold;vertical-align:top;">user</td><td style="vertical-align:top;">:</td><td><div><table><tr><td style="font-weight:bold;vertical-align:top;">autorizado</td><td style="vertical-align:top;">:</td><td><div>False</div></td></tr><tr><td style="font-weight:bold;vertical-align:top;">cargo</td><td style="vertical-align:top;">:</td><td><div>None</div></td></tr><tr><td style="font-weight:bold;vertical-align:top;">email</td><td style="vertical-align:top;">:</td><td><div>webmaster@sigulab.com</div></td></tr><tr><td style="font-weight:bold;vertical-align:top;">first_name</td><td style="vertical-align:top;">:</td><td><div>Super</div></td></tr><tr><td style="font-weight:bold;vertical-align:top;">id</td><td style="vertical-align:top;">:</td><td><div>1L</div></td></tr><tr><td style="font-weight:bold;vertical-align:top;">last_name</td><td style="vertical-align:top;">:</td><td><div>Usuario</div></td></tr><tr><td style="font-weight:bold;vertical-align:top;">registration_id</td><td style="vertical-align:top;">:</td><td><div></div></td></tr><tr><td style="font-weight:bold;vertical-align:top;">registration_key</td><td style="vertical-align:top;">:</td><td><div></div></td></tr><tr><td style="font-weight:bold;vertical-align:top;">reset_password_key</td><td style="vertical-align:top;">:</td><td><div></div></td></tr></table></div></td></tr><tr><td style="font-weight:bold;vertical-align:top;">user_groups</td><td style="vertical-align:top;">:</td><td><div><table><tr><td style="font-weight:bold;vertical-align:top;">1</td><td style="vertical-align:top;">:</td><td><div>WebMaster</div></td></tr></table></div></td></tr></table></div></td></tr><tr><td style="font-weight:bold;vertical-align:top;">flash</td><td style="vertical-align:top;">:</td><td><div>None</div></td></tr></table></div>'
tRp300
sS'etype'
p301
S"<type 'exceptions.ValueError'>"
p302
sS'date'
p303
S'Mon Feb 13 17:29:26 2017'
p304
sS'response'
p305
g57
(S's\x87&\x00\x00<div><table><tr><td style="font-weight:bold;vertical-align:top;">body</td><td style="vertical-align:top;">:</td><td><div>&lt;cStringIO.StringO object at 0x7ff6a73c1378&gt;</div></td></tr><tr><td style="font-weight:bold;vertical-align:top;">cookies</td><td style="vertical-align:top;">:</td><td><div><table><tr><td style="font-weight:bold;vertical-align:top;">session_id_sigulab</td><td style="vertical-align:top;">:</td><td><div>127.0.0.1-90705daf-d3c4-4545-a78e-311961a8c9dd<table><tr><td style="font-weight:bold;vertical-align:top;">comment</td><td style="vertical-align:top;">:</td><td><div></div></td></tr><tr><td style="font-weight:bold;vertical-align:top;">domain</td><td style="vertical-align:top;">:</td><td><div></div></td></tr><tr><td style="font-weight:bold;vertical-align:top;">expires</td><td style="vertical-align:top;">:</td><td><div></div></td></tr><tr><td style="font-weight:bold;vertical-align:top;">httponly</td><td style="vertical-align:top;">:</td><td><div></div></td></tr><tr><td style="font-weight:bold;vertical-align:top;">max-age</td><td style="vertical-align:top;">:</td><td><div></div></td></tr><tr><td style="font-weight:bold;vertical-align:top;">path</td><td style="vertical-align:top;">:</td><td><div>/</div></td></tr><tr><td style="font-weight:bold;vertical-align:top;">secure</td><td style="vertical-align:top;">:</td><td><div></div></td></tr><tr><td style="font-weight:bold;vertical-align:top;">version</td><td style="vertical-align:top;">:</td><td><div></div></td></tr></table></div></td></tr></table></div></td></tr><tr><td style="font-weight:bold;vertical-align:top;">delimiters</td><td style="vertical-align:top;">:</td><td><div><table><tr><td><div>{{</div></td></tr><tr><td><div>}}</div></td></tr></table></div></td></tr><tr><td style="font-weight:bold;vertical-align:top;">files</td><td style="vertical-align:top;">:</td><td><div><table></table></div></td></tr><tr><td style="font-weight:bold;vertical-align:top;">flash</td><td style="vertical-align:top;">:</td><td><div></div></td></tr><tr><td style="font-weight:bold;vertical-align:top;">form_label_separator</td><td style="vertical-align:top;">:</td><td><div></div></td></tr><tr><td style="font-weight:bold;vertical-align:top;">formstyle</td><td style="vertical-align:top;">:</td><td><div>bootstrap3_inline</div></td></tr><tr><td style="font-weight:bold;vertical-align:top;">generic_patterns</td><td style="vertical-align:top;">:</td><td><div><table><tr><td><div>*</div></td></tr></table></div></td></tr><tr><td style="font-weight:bold;vertical-align:top;">headers</td><td style="vertical-align:top;">:</td><td><div><table><tr><td style="font-weight:bold;vertical-align:top;">X-Powered-By</td><td style="vertical-align:top;">:</td><td><div>web2py</div></td></tr></table></div></td></tr><tr><td style="font-weight:bold;vertical-align:top;">menu</td><td style="vertical-align:top;">:</td><td><div><table><tr><td><div><table><tr><td><div>Inicio</div></td></tr><tr><td><div>True</div></td></tr><tr><td><div>/</div></td></tr><tr><td><div><table></table></div></td></tr></table></div></td></tr><tr><td><div><table><tr><td><div>SMyDP</div></td></tr><tr><td><div>False</div></td></tr><tr><td><div>None</div></td></tr><tr><td><div><table><tr><td><div><table><tr><td><div>Inventario</div></td></tr><tr><td><div>/sustancias/select_inventario</div></td></tr><tr><td><div>/sustancias/select_inventario</div></td></tr></table></div></td></tr><tr><td><div><table><tr><td><div>Listado de Sustancias</div></td></tr><tr><td><div>/sustancias/sustanciapeligrosa_manage</div></td></tr><tr><td><div>/sustancias/sustanciapeligrosa_manage</div></td></tr></table></div></td></tr></table></div></td></tr></table></div></td></tr><tr><td><div><table><tr><td><div>Solicitudes</div></td></tr><tr><td><div>False</div></td></tr><tr><td><div>None</div></td></tr><tr><td><div><table><tr><td><div><table><tr><td><div>Entrada</div></td></tr><tr><td><div>/s_entrada/entrada</div></td></tr><tr><td><div>/s_entrada/entrada</div></td></tr></table></div></td></tr><tr><td><div><table><tr><td><div>Salida</div></td></tr><tr><td><div>/s_entrada/salida</div></td></tr><tr><td><div>/s_entrada/salida</div></td></tr></table></div></td></tr></table></div></td></tr></table></div></td></tr><tr><td><div><table><tr><td><div>Prestamos</div></td></tr><tr><td><div>False</div></td></tr><tr><td><div>None</div></td></tr><tr><td><div><table><tr><td><div><table><tr><td><div>Por devolver</div></td></tr><tr><td><div>/s_entrada/p_por_devolver</div></td></tr><tr><td><div>/s_entrada/p_por_devolver</div></td></tr></table></div></td></tr><tr><td><div><table><tr><td><div>Por recibir</div></td></tr><tr><td><div>/s_entrada/p_por_recibir</div></td></tr><tr><td><div>/s_entrada/p_por_recibir</div></td></tr></table></div></td></tr></table></div></td></tr></table></div></td></tr><tr><td><div><table><tr><td><div>Gesti\xc3\xb3n</div></td></tr><tr><td><div>False</div></td></tr><tr><td><div>None</div></td></tr><tr><td><div><table><tr><td><div><table><tr><td><div>Usuarios Registrados</div></td></tr><tr><td><div>False</div></td></tr><tr><td><div>/gestion/usuarios</div></td></tr></table></div></td></tr><tr><td><div><table><tr><td><div>Lista de Autorizados</div></td></tr><tr><td><div>False</div></td></tr><tr><td><div>/gestion/autorizados</div></td></tr></table></div></td></tr><tr><td><div><table><tr><td><div>Pendientes de confirmaci\xc3\xb3n (0)</div></td></tr><tr><td><div>False</div></td></tr><tr><td><div>/gestion/pendientes</div></td></tr></table></div></td></tr><tr><td><div><table><tr><td><div>Privilegios</div></td></tr><tr><td><div>False</div></td></tr><tr><td><div>/gestion/privilegios</div></td></tr></table></div></td></tr><tr><td><div><table><tr><td><div>Membresia</div></td></tr><tr><td><div>False</div></td></tr><tr><td><div>/gestion/membresia</div></td></tr></table></div></td></tr></table></div></td></tr></table></div></td></tr><tr><td><div><table><tr><td><div>Editar</div></td></tr><tr><td><div>False</div></td></tr><tr><td><div>/admin/design/SIGULAB</div></td></tr></table></div></td></tr></table></div></td></tr><tr><td style="font-weight:bold;vertical-align:top;">meta</td><td style="vertical-align:top;">:</td><td><div><table><tr><td style="font-weight:bold;vertical-align:top;">author</td><td style="vertical-align:top;">:</td><td><div>Lambda &lt;you@example.com&gt;</div></td></tr><tr><td style="font-weight:bold;vertical-align:top;">description</td><td style="vertical-align:top;">:</td><td><div></div></td></tr><tr><td style="font-weight:bold;vertical-align:top;">keywords</td><td style="vertical-align:top;">:</td><td><div></div></td></tr></table></div></td></tr><tr><td style="font-weight:bold;vertical-align:top;">models_to_run</td><td style="vertical-align:top;">:</td><td><div><table><tr><td><div>^\\w+\\.py$</div></td></tr><tr><td><div>^default/\\w+\\.py$</div></td></tr><tr><td><div>^default/index/\\w+\\.py$</div></td></tr></table></div></td></tr><tr><td style="font-weight:bold;vertical-align:top;">postprocessing</td><td style="vertical-align:top;">:</td><td><div><table></table></div></td></tr><tr><td style="font-weight:bold;vertical-align:top;">session_client</td><td style="vertical-align:top;">:</td><td><div>127.0.0.1</div></td></tr><tr><td style="font-weight:bold;vertical-align:top;">session_cookie_compression_level</td><td style="vertical-align:top;">:</td><td><div>None</div></td></tr><tr><td style="font-weight:bold;vertical-align:top;">session_cookie_expires</td><td style="vertical-align:top;">:</td><td><div>None</div></td></tr><tr><td style="font-weight:bold;vertical-align:top;">session_data_name</td><td style="vertical-align:top;">:</td><td><div>session_data_sigulab</div></td></tr><tr><td style="font-weight:bold;vertical-align:top;">session_file</td><td style="vertical-align:top;">:</td><td><div>&lt;open file &#x27;/home/adolfo/Desktop/PROYECTO ULAB/applications/SIGULAB/sessions/010/119/127.0.0.1-90705daf-d3c4-4545-a78e-311961a8c9dd&#x27;, mode &#x27;rb+&#x27; at 0x7ff6f2bc6ae0&gt;</div></td></tr><tr><td style="font-weight:bold;vertical-align:top;">session_filename</td><td style="vertical-align:top;">:</td><td><div>/home/adolfo/Desktop/PROYECTO ULAB/applications/SIGULAB/sessions/127.0.0.1-90705daf-d3c4-4545-a78e-311961a8c9dd</div></td></tr><tr><td style="font-weight:bold;vertical-align:top;">session_hash</td><td style="vertical-align:top;">:</td><td><div>5708aff4b64949ea902c0c2fdd2bab57</div></td></tr><tr><td style="font-weight:bold;vertical-align:top;">session_id</td><td style="vertical-align:top;">:</td><td><div>127.0.0.1-90705daf-d3c4-4545-a78e-311961a8c9dd</div></td></tr><tr><td style="font-weight:bold;vertical-align:top;">session_id_name</td><td style="vertical-align:top;">:</td><td><div>session_id_sigulab</div></td></tr><tr><td style="font-weight:bold;vertical-align:top;">session_locked</td><td style="vertical-align:top;">:</td><td><div>True</div></td></tr><tr><td style="font-weight:bold;vertical-align:top;">session_masterapp</td><td style="vertical-align:top;">:</td><td><div>SIGULAB</div></td></tr><tr><td style="font-weight:bold;vertical-align:top;">session_new</td><td style="vertical-align:top;">:</td><td><div>False</div></td></tr><tr><td style="font-weight:bold;vertical-align:top;">session_storage_type</td><td style="vertical-align:top;">:</td><td><div>file</div></td></tr><tr><td style="font-weight:bold;vertical-align:top;">status</td><td style="vertical-align:top;">:</td><td><div>200</div></td></tr><tr><td style="font-weight:bold;vertical-align:top;">subtitle</td><td style="vertical-align:top;">:</td><td><div>Equipo</div></td></tr><tr><td style="font-weight:bold;vertical-align:top;">title</td><td style="vertical-align:top;">:</td><td><div>Sistema De Gesti\xc3\xb3n ULAB - USB</div></td></tr><tr><td style="font-weight:bold;vertical-align:top;">view</td><td style="vertical-align:top;">:</td><td><div>default/index.html</div></td></tr></table></div>'
tRp306
sS'locals'
p307
(dp308
S'obj'
p309
S"'jrodrig@usb.ve'"
p310
sS'self'
p311
S'<pydal.adapters.postgres.PostgreSQLAdapter object>'
p312
sS'field_is_type'
p313
S'<built-in method startswith of str object>'
p314
sS'r'
S'None'
p315
sS'fieldtype'
p316
S"'integer'"
p317
sssS'traceback'
p318
S'Traceback (most recent call last):\n  File "/home/adolfo/Desktop/PROYECTO ULAB/gluon/restricted.py", line 227, in restricted\n    exec ccode in environment\n  File "/home/adolfo/Desktop/PROYECTO ULAB/applications/SIGULAB/models/tablas_base.py", line 226, in <module>\n    populate_db()\n  File "/home/adolfo/Desktop/PROYECTO ULAB/applications/SIGULAB/models/populate.py", line 232, in populate_db\n    db.t_seccion.insert(f_seccion=\'Alta Tensi\xc3\xb3n\',f_laboratorio=\'LaboratorioA\',f_jefe=\'jrodrig@usb.ve\')\n  File "/home/adolfo/Desktop/PROYECTO ULAB/gluon/packages/dal/pydal/objects.py", line 726, in insert\n    ret = self._db._adapter.insert(self, self._listify(fields))\n  File "/home/adolfo/Desktop/PROYECTO ULAB/gluon/packages/dal/pydal/adapters/base.py", line 739, in insert\n    query = self._insert(table,fields)\n  File "/home/adolfo/Desktop/PROYECTO ULAB/gluon/packages/dal/pydal/adapters/postgres.py", line 167, in _insert\n    values = \',\'.join(self.expand(v, f.type) for f, v in fields)\n  File "/home/adolfo/Desktop/PROYECTO ULAB/gluon/packages/dal/pydal/adapters/postgres.py", line 167, in <genexpr>\n    values = \',\'.join(self.expand(v, f.type) for f, v in fields)\n  File "/home/adolfo/Desktop/PROYECTO ULAB/gluon/packages/dal/pydal/adapters/base.py", line 962, in expand\n    rv = self.represent(expression, field_type)\n  File "/home/adolfo/Desktop/PROYECTO ULAB/gluon/packages/dal/pydal/adapters/postgres.py", line 351, in represent\n    return BaseAdapter.represent(self, obj, fieldtype)\n  File "/home/adolfo/Desktop/PROYECTO ULAB/gluon/packages/dal/pydal/adapters/base.py", line 1435, in represent\n    return str(long(obj))\nValueError: invalid literal for long() with base 10: \'jrodrig@usb.ve\'\n'
p319
s.