(dp1
S'output'
p2
S"<type 'exceptions.SyntaxError'> invalid syntax (populate.py, line 1)"
p3
sS'layer'
p4
S'/home/adolfo/Desktop/PROYECTO ULAB/applications/SIGULAB/models/populate.py'
p5
sS'code'
p6
S"def populate_db:\n    db.t_sustancias.insert(f_nombre='Acetato de Etilo', f_cas='141-78-6', f_pureza='99', f_estado='2', f_control='1', f_peligrosidad='Inflamable')\n    db.t_sustancias.insert(f_nombre='Acetona', f_cas='67-64-1', f_pureza='99', f_estado='2', f_control='1', f_peligrosidad='Inflamable')\n    db.t_sustancias.insert(f_nombre='\xc3\x81cido Antran\xc3\xadlico', f_cas='118-92-3', f_pureza='99', f_estado='2', f_control='1', f_peligrosidad='Inflamable')\n    db.t_sustancias.insert(f_nombre='\xc3\x81cido Clorh\xc3\xaddrico', f_cas='7647-01-0', f_pureza='37', f_estado='2', f_control='1', f_peligrosidad='T\xc3\xb3xico')\n    db.t_sustancias.insert(f_nombre='\xc3\x81cido Fenilac\xc3\xa9tico y sus sales', f_cas='103-82-2', f_pureza='99', f_estado='2', f_control='1', f_peligrosidad='Comburente')\n    db.t_sustancias.insert(f_nombre='\xc3\x81cido N\xc3\xadtrico', f_cas='7697-37-2', f_pureza='5', f_estado='2', f_control='2', f_peligrosidad='T\xc3\xb3xico')\n    db.t_sustancias.insert(f_nombre='\xc3\x81cido P\xc3\xadcrico (trinitrofenol)', f_cas='88-89-1', f_pureza='3', f_estado='1', f_control='2', f_peligrosidad='Explosivo')\n    db.t_sustancias.insert(f_nombre='\xc3\x81cido Sulf\xc3\xbarico', f_cas='7664-93-9', f_pureza='97', f_estado='2', f_control='3', f_peligrosidad='Corrosivo')\n    db.t_sustancias.insert(f_nombre='Aluminio en polvo', f_cas='7429-90-5', f_pureza='99', f_estado='1', f_control='2', f_peligrosidad='Inflamable')\n    db.t_sustancias.insert(f_nombre='Amon\xc3\xadaco Anh\xc3\xaddrico', f_cas='7664-41-7', f_pureza='99', f_estado='2', f_control='1', f_peligrosidad='Nocivo')\n    db.t_sustancias.insert(f_nombre='Amon\xc3\xadaco en disoluci\xc3\xb3n acuosa', f_cas='001336-21-6', f_pureza='25', f_estado='2', f_control='1', f_peligrosidad='Corrosivo')\n    db.t_sustancias.insert(f_nombre='Anh\xc3\xaddrico ac\xc3\xa9tico', f_cas='108-24-7', f_pureza='99', f_estado='2', f_control='1', f_peligrosidad='Inflamable')\n    db.t_sustancias.insert(f_nombre='Azidas (de sodio)', f_cas='26628-22-8', f_pureza='99', f_estado='1', f_control='2', f_peligrosidad='T\xc3\xb3xico')\n    db.t_sustancias.insert(f_nombre='Benceno', f_cas='71-43-2', f_pureza='99', f_estado='2', f_control='2', f_peligrosidad='Inflamable')\n    db.t_sustancias.insert(f_nombre='Butanona (metilcetona)', f_cas='78-93-3', f_pureza='99', f_estado='2', f_control='1', f_peligrosidad='Inflamable')\n    db.t_sustancias.insert(f_nombre='Carbonato de Sodio', f_cas='497-19-8', f_pureza='99', f_estado='1', f_control='1', f_peligrosidad='Corrosivo')\n    db.t_sustancias.insert(f_nombre='Clorato de Potasio', f_cas='3811-04-9', f_pureza='99', f_estado='1', f_control='2', f_peligrosidad='Comburente')\n    db.t_sustancias.insert(f_nombre='Clorato de Sodio', f_cas='7775-09-9', f_pureza='99', f_estado='1', f_control='2', f_peligrosidad='Comburente')\n    db.t_sustancias.insert(f_nombre='Cloroformo', f_cas='67-66-3', f_pureza='99', f_estado='2', f_control='1', f_peligrosidad='Nocivo')\n    db.t_sustancias.insert(f_nombre='Diclorometano', f_cas='75-09-2', f_pureza='99', f_estado='2', f_control='1', f_peligrosidad='Nocivo')\n    db.t_sustancias.insert(f_nombre='Dinitrofenol', f_cas='51-28-5', f_pureza='99', f_estado='1', f_control='2', f_peligrosidad='Nocivo')\n    db.t_sustancias.insert(f_nombre='Dinitrotolueno', f_cas='606-20-2', f_pureza='99', f_estado='1', f_control='2', f_peligrosidad='Nocivo')\n    db.t_sustancias.insert(f_nombre='Etanol', f_cas='64-17-5', f_pureza='99', f_estado='2', f_control='1', f_peligrosidad='Inflamable')\n    db.t_sustancias.insert(f_nombre='Eter Et\xc3\xadlico', f_cas='60-29-7', f_pureza='99', f_estado='2', f_control='1', f_peligrosidad='Explosivo')\n    db.t_sustancias.insert(f_nombre='F\xc3\xb3sforo blanco', f_cas='7723-14-0', f_pureza='99', f_estado='1', f_control='2', f_peligrosidad='Inflamable')\n\n    db.t_sustancias.insert(f_nombre='Fulminato de Mercurio', f_cas='', f_pureza='', f_estado='', f_control='2', f_peligrosidad='N/A')\n    db.t_sustancias.insert(f_nombre='Heptano', f_cas='142-82-5', f_pureza='99', f_estado='2', f_control='1', f_peligrosidad='Inflamable')\n    db.t_sustancias.insert(f_nombre='Hexano', f_cas='110-54-3', f_pureza='99', f_estado='2', f_control='1', f_peligrosidad='Inflamable')\n    db.t_sustancias.insert(f_nombre='Hidrogenocarbonato (Bicarbonato) de Sodio', f_cas='144-55-8', f_pureza='99', f_estado='1', f_control='1', f_peligrosidad='Irritante')\n    db.t_sustancias.insert(f_nombre='Hipoclorito de calcio', f_cas='7778-54-3', f_pureza='68', f_estado='1', f_control='2', f_peligrosidad='Corrosivo')\n    db.t_sustancias.insert(f_nombre='Hipoclorito de Sodio', f_cas='7681-52-9', f_pureza='', f_estado='2', f_control='2', f_peligrosidad='Corrosivo')\n    db.t_sustancias.insert(f_nombre='Metanol', f_cas='67-56-1', f_pureza='99', f_estado='2', f_control='1', f_peligrosidad='Inflamable')\n    db.t_sustancias.insert(f_nombre='Nitrato de Amonio (salitre de chile)', f_cas='6484-52-2', f_pureza='99', f_estado='1', f_control='2', f_peligrosidad='Explosivo')\n    db.t_sustancias.insert(f_nombre='Nitrato de Bismuto', f_cas='7697-37-2', f_pureza='99', f_estado='1', f_control='2', f_peligrosidad='Corrosivo')\n    db.t_sustancias.insert(f_nombre='Nitrato de Calcio', f_cas='13477-34-4', f_pureza='99', f_estado='1', f_control='2', f_peligrosidad='T\xc3\xb3xico')\n    db.t_sustancias.insert(f_nombre='Nitrato de Plata', f_cas='7761-88-8', f_pureza='99', f_estado='1', f_control='2', f_peligrosidad='Corrosivo')\n    db.t_sustancias.insert(f_nombre='Nitrato de Plomo', f_cas='10099-74-8', f_pureza='99', f_estado='1', f_control='2', f_peligrosidad='T\xc3\xb3xico')\n    db.t_sustancias.insert(f_nombre='Nitrato de Potasio', f_cas='7757-79-1', f_pureza='99', f_estado='1', f_control='2', f_peligrosidad='Comburente')\n    db.t_sustancias.insert(f_nombre='Nitrato de Sodio', f_cas='7631-99-4', f_pureza='99', f_estado='1', f_control='2', f_peligrosidad='Comburente')\n    db.t_sustancias.insert(f_nombre='Nitrito de Sodio', f_cas='7632-00-0', f_pureza='99', f_estado='1', f_control='2', f_peligrosidad='Comburente')\n    db.t_sustancias.insert(f_nombre='Nitrobenceno', f_cas='98-95-3', f_pureza='99', f_estado='2', f_control='2', f_peligrosidad='Nocivo')\n    db.t_sustancias.insert(f_nombre='Nitrocelulosa', f_cas='9004-70-0', f_pureza='12', f_estado='1', f_control='2', f_peligrosidad='Inflamable')\n    db.t_sustancias.insert(f_nombre='Nitroglicerina', f_cas='55-63-0', f_pureza='1', f_estado='1', f_control='2', f_peligrosidad='Explosivo')\n    db.t_sustancias.insert(f_nombre='Perclorato de Potasio', f_cas='7778-74-7', f_pureza='99', f_estado='1', f_control='2', f_peligrosidad='Comburente')\n    db.t_sustancias.insert(f_nombre='Perclorato de Sodio', f_cas='7601-89-0', f_pureza='99', f_estado='1', f_control='2', f_peligrosidad='Comburente')\n    db.t_sustancias.insert(f_nombre='Permanganato de Potasio', f_cas='7722-64-7', f_pureza='99', f_estado='1', f_control='3', f_peligrosidad='Comburente')\n    db.t_sustancias.insert(f_nombre='Sesquicarbonato de Sodio', f_cas='6106-20-3', f_pureza='99', f_estado='1', f_control='1', f_peligrosidad='Corrosivo')\n    db.t_sustancias.insert(f_nombre='Sulfato de Amonio', f_cas='7783-20-2', f_pureza='99', f_estado='1', f_control='2', f_peligrosidad='Corrosivo')\n    db.t_sustancias.insert(f_nombre='Sulfato de Magnesio', f_cas='7487-88-9', f_pureza='65', f_estado='1', f_control='2', f_peligrosidad='Irritante')\n    db.t_sustancias.insert(f_nombre='Sulfuro de Potasio', f_cas='1312-73-8', f_pureza='99', f_estado='1', f_control='2', f_peligrosidad='Inflamable')\n    db.t_sustancias.insert(f_nombre='Tetrahidrofurano', f_cas='109-99-9', f_pureza='99', f_estado='2', f_control='1', f_peligrosidad='Inflamable')\n    db.t_sustancias.insert(f_nombre='Tolueno', f_cas='108-88-3', f_pureza='99', f_estado='2', f_control='1', f_peligrosidad='Inflamable')\n    db.t_sustancias.insert(f_nombre='Trinitrotolueno (TNT)', f_cas='118-96-7', f_pureza='99', f_estado='1', f_control='2', f_peligrosidad='Explosivo')\n    db.t_sustancias.insert(f_nombre='Urea', f_cas='57-13-6 ', f_pureza='', f_estado='1', f_control='2', f_peligrosidad='Irritante')\n    db.t_sustancias.insert(f_nombre='4-metilpentan-2-ona (Metilisobutilcetona)', f_cas='108-10-1', f_pureza='99', f_estado='2', f_control='1', f_peligrosidad='T\xc3\xb3xico')\n    db.t_sustancias.insert(f_nombre='Acetato de Etilo', f_cas='141-78-6', f_pureza='99', f_estado='2', f_control='1', f_peligrosidad='Irritante')\n    db.t_sustancias.insert(f_nombre='Acetona', f_cas='67-64-1', f_pureza='99', f_estado='2', f_control='1', f_peligrosidad='T\xc3\xb3xico')\n    db.t_sustancias.insert(f_nombre='\xc3\x81cido Antran\xc3\xadlico', f_cas='118-92-3', f_pureza='99', f_estado='2', f_control='1', f_peligrosidad='Comburente')\n    db.t_sustancias.insert(f_nombre='\xc3\x81cido Clorh\xc3\xaddrico', f_cas='7647-01-0', f_pureza='37', f_estado='2', f_control='1', f_peligrosidad='Corrosivo')\n    db.t_sustancias.insert(f_nombre='\xc3\x81cido N\xc3\xadtrico', f_cas='7697-37-2', f_pureza='5', f_estado='2', f_control='2', f_peligrosidad='Irritante')\n    db.t_sustancias.insert(f_nombre='\xc3\x81cido P\xc3\xadcrico (trinitrofenol)', f_cas='88-89-1', f_pureza='3', f_estado='1', f_control='2', f_peligrosidad='T\xc3\xb3xico')\n    db.t_sustancias.insert(f_nombre='\xc3\x81cido Sulf\xc3\xbarico', f_cas='7664-93-9', f_pureza='97', f_estado='2', f_control='3', f_peligrosidad='Irritante')\n    db.t_sustancias.insert(f_nombre='Amon\xc3\xadaco Anh\xc3\xaddrico', f_cas='7664-41-7', f_pureza='99', f_estado='2', f_control='1', f_peligrosidad='Inflamable')\n    db.t_sustancias.insert(f_nombre='Amon\xc3\xadaco en disoluci\xc3\xb3n acuosa', f_cas='001336-21-6', f_pureza='25', f_estado='2', f_control='1', f_peligrosidad='T\xc3\xb3xico')\n    db.t_sustancias.insert(f_nombre='Anh\xc3\xaddrico ac\xc3\xa9tico', f_cas='108-24-7', f_pureza='99', f_estado='2', f_control='1', f_peligrosidad='Nocivo')\n    db.t_sustancias.insert(f_nombre='Benceno', f_cas='71-43-2', f_pureza='99', f_estado='2', f_control='2', f_peligrosidad='T\xc3\xb3xico')\n    db.t_sustancias.insert(f_nombre='Butanona (metilcetona)', f_cas='78-93-3', f_pureza='99', f_estado='2', f_control='1', f_peligrosidad='T\xc3\xb3xico')\n    db.t_sustancias.insert(f_nombre='Carbonato de Sodio', f_cas='497-19-8', f_pureza='99', f_estado='1', f_control='1', f_peligrosidad='Irritante')\n    db.t_sustancias.insert(f_nombre='Clorato de Potasio', f_cas='3811-04-9', f_pureza='99', f_estado='1', f_control='2', f_peligrosidad='T\xc3\xb3xico')\n    db.t_sustancias.insert(f_nombre='Clorato de Sodio', f_cas='7775-09-9', f_pureza='99', f_estado='1', f_control='2', f_peligrosidad='T\xc3\xb3xico')\n    db.t_sustancias.insert(f_nombre='Cloroformo', f_cas='67-66-3', f_pureza='99', f_estado='2', f_control='1', f_peligrosidad='T\xc3\xb3xico')\n    db.t_sustancias.insert(f_nombre='Diclorometano', f_cas='75-09-2', f_pureza='99', f_estado='2', f_control='1', f_peligrosidad='Inflamable')\n    db.t_sustancias.insert(f_nombre='Dinitrofenol', f_cas='51-28-5', f_pureza='99', f_estado='1', f_control='2', f_peligrosidad='T\xc3\xb3xico')\n    db.t_sustancias.insert(f_nombre='Etanol', f_cas='64-17-5', f_pureza='99', f_estado='2', f_control='1', f_peligrosidad='Irritante')\n    db.t_sustancias.insert(f_nombre='Eter Et\xc3\xadlico', f_cas='60-29-7', f_pureza='99', f_estado='2', f_control='1', f_peligrosidad='Nocivo')\n    db.t_sustancias.insert(f_nombre='F\xc3\xb3sforo blanco', f_cas='7723-14-0', f_pureza='99', f_estado='1', f_control='2', f_peligrosidad='Nocivo')\n\n    db.t_sustancias.insert(f_nombre='Heptano', f_cas='142-82-5', f_pureza='99', f_estado='2', f_control='1', f_peligrosidad='Irritante')\n    db.t_sustancias.insert(f_nombre='Hipoclorito de calcio', f_cas='7778-54-3', f_pureza='68', f_estado='1', f_control='2', f_peligrosidad='Irritante')\n    db.t_sustancias.insert(f_nombre='Hipoclorito de Sodio', f_cas='7681-52-9', f_pureza='', f_estado='2', f_control='2', f_peligrosidad='T\xc3\xb3xico')\n    db.t_sustancias.insert(f_nombre='Metanol', f_cas='67-56-1', f_pureza='99', f_estado='2', f_control='1', f_peligrosidad='Irritante')\n    db.t_sustancias.insert(f_nombre='Nitrato de Bismuto', f_cas='7697-37-2', f_pureza='99', f_estado='1', f_control='2', f_peligrosidad='T\xc3\xb3xico')\n    db.t_sustancias.insert(f_nombre='Nitrato de Plata', f_cas='7761-88-8', f_pureza='99', f_estado='1', f_control='2', f_peligrosidad='T\xc3\xb3xico')\n    db.t_sustancias.insert(f_nombre='Nitrato de Plomo', f_cas='10099-74-8', f_pureza='99', f_estado='1', f_control='2', f_peligrosidad='T\xc3\xb3xico')\n    db.t_sustancias.insert(f_nombre='Nitrato de Potasio', f_cas='7757-79-1', f_pureza='99', f_estado='1', f_control='2', f_peligrosidad='T\xc3\xb3xico')\n    db.t_sustancias.insert(f_nombre='Nitrato de Sodio', f_cas='7631-99-4', f_pureza='99', f_estado='1', f_control='2', f_peligrosidad='T\xc3\xb3xico')\n    db.t_sustancias.insert(f_nombre='Nitrito de Sodio', f_cas='7632-00-0', f_pureza='99', f_estado='1', f_control='2', f_peligrosidad='T\xc3\xb3xico')\n    db.t_sustancias.insert(f_nombre='Nitrobenceno', f_cas='98-95-3', f_pureza='99', f_estado='2', f_control='2', f_peligrosidad='T\xc3\xb3xico')\n    db.t_sustancias.insert(f_nombre='Perclorato de Potasio', f_cas='7778-74-7', f_pureza='99', f_estado='1', f_control='2', f_peligrosidad='T\xc3\xb3xico')\n    db.t_sustancias.insert(f_nombre='Perclorato de Sodio', f_cas='7601-89-0', f_pureza='99', f_estado='1', f_control='2', f_peligrosidad='Nocivo')\n    db.t_sustancias.insert(f_nombre='Permanganato de Potasio', f_cas='7722-64-7', f_pureza='99', f_estado='1', f_control='3', f_peligrosidad='Corrosivo')\n    db.t_sustancias.insert(f_nombre='Sesquicarbonato de Sodio', f_cas='6106-20-3', f_pureza='99', f_estado='1', f_control='1', f_peligrosidad='Irritante')\n    db.t_sustancias.insert(f_nombre='Sulfato de Amonio', f_cas='7783-20-2', f_pureza='99', f_estado='1', f_control='2', f_peligrosidad='Irritante')\n    db.t_sustancias.insert(f_nombre='Sulfuro de Potasio', f_cas='1312-73-8', f_pureza='99', f_estado='1', f_control='2', f_peligrosidad='Corrosivo')\n    db.t_sustancias.insert(f_nombre='Tetrahidrofurano', f_cas='109-99-9', f_pureza='99', f_estado='2', f_control='1', f_peligrosidad='Irritante')\n    db.t_sustancias.insert(f_nombre='Tolueno', f_cas='108-88-3', f_pureza='99', f_estado='2', f_control='1', f_peligrosidad='T\xc3\xb3xico')\n    db.t_sustancias.insert(f_nombre='Trinitrotolueno (TNT)', f_cas='118-96-7', f_pureza='99', f_estado='1', f_control='2', f_peligrosidad='Nocivo')\n    db.t_sustancias.insert(f_nombre='Urea', f_cas='57-13-6 ', f_pureza='', f_estado='1', f_control='2', f_peligrosidad='Comburente')\n\n\n    #####Deberian ser RL8 pero este regimen aun no esta implementado\n    db.t_sustancias.insert(f_nombre='F\xc3\xb3sforos rojos o amorfos', f_cas='7723-14-0', f_pureza='99', f_estado='1', f_control='4', f_peligrosidad='Inflamable')\n    db.t_sustancias.insert(f_nombre='F\xc3\xb3sforos rojos o amorfos', f_cas='7723-14-0', f_pureza='99', f_estado='1', f_control='4', f_peligrosidad='Nocivo')"
p7
sS'snapshot'
p8
(dp9
S'exception'
p10
(dp11
S'__getslice__'
p12
S"<method-wrapper '__getslice__' of exceptions.SyntaxError object>"
p13
sS'text'
p14
S"'def populate_db:\\n'"
p15
sS'__str__'
p16
S"<method-wrapper '__str__' of exceptions.SyntaxError object>"
p17
sS'__reduce__'
p18
S'<built-in method __reduce__ of exceptions.SyntaxError object>'
p19
sS'__dict__'
p20
S'{}'
p21
sS'__sizeof__'
p22
S'<built-in method __sizeof__ of exceptions.SyntaxError object>'
p23
sS'__init__'
p24
S"<method-wrapper '__init__' of exceptions.SyntaxError object>"
p25
sS'__setattr__'
p26
S"<method-wrapper '__setattr__' of exceptions.SyntaxError object>"
p27
sS'__reduce_ex__'
p28
S'<built-in method __reduce_ex__ of exceptions.SyntaxError object>'
p29
sS'__new__'
p30
S'<built-in method __new__ of type object>'
p31
sS'__format__'
p32
S'<built-in method __format__ of exceptions.SyntaxError object>'
p33
sS'__class__'
p34
S"<type 'exceptions.SyntaxError'>"
p35
sS'filename'
p36
S"'/home/adolfo/Desktop/PROYECTO ULAB/applications/SIGULAB/models/populate.py'"
p37
sS'lineno'
p38
S'1'
sS'msg'
p39
S"'invalid syntax'"
p40
sS'__doc__'
p41
S"'Invalid syntax.'"
p42
sS'__getitem__'
p43
S"<method-wrapper '__getitem__' of exceptions.SyntaxError object>"
p44
sS'__setstate__'
p45
S'<built-in method __setstate__ of exceptions.SyntaxError object>'
p46
sS'__getattribute__'
p47
S"<method-wrapper '__getattribute__' of exceptions.SyntaxError object>"
p48
sS'print_file_and_line'
p49
S'None'
p50
sS'args'
p51
S"('invalid syntax', ('/home/adolfo/Desktop/PROYECTO ULAB/applications/SIGULAB/models/populate.py', 1, 16, 'def populate_db:\\n'))"
p52
sS'__subclasshook__'
p53
S'<built-in method __subclasshook__ of type object>'
p54
sS'offset'
p55
S'16'
p56
sS'__unicode__'
p57
S'<built-in method __unicode__ of exceptions.SyntaxError object>'
p58
sS'__delattr__'
p59
S"<method-wrapper '__delattr__' of exceptions.SyntaxError object>"
p60
sS'__repr__'
p61
S"<method-wrapper '__repr__' of exceptions.SyntaxError object>"
p62
sS'__hash__'
p63
S"<method-wrapper '__hash__' of exceptions.SyntaxError object>"
p64
ssS'evalue'
p65
S'invalid syntax (populate.py, line 1)'
p66
sS'request'
p67
cgluon.html
XML_unpickle
p68
(S'sRW\x00\x00<div><table><tr><td style="font-weight:bold;vertical-align:top;">ajax</td><td style="vertical-align:top;">:</td><td><div>False</div></td></tr><tr><td style="font-weight:bold;vertical-align:top;">application</td><td style="vertical-align:top;">:</td><td><div>SIGULAB</div></td></tr><tr><td style="font-weight:bold;vertical-align:top;">args</td><td style="vertical-align:top;">:</td><td><div><table></table></div></td></tr><tr><td style="font-weight:bold;vertical-align:top;">cid</td><td style="vertical-align:top;">:</td><td><div>None</div></td></tr><tr><td style="font-weight:bold;vertical-align:top;">client</td><td style="vertical-align:top;">:</td><td><div>127.0.0.1</div></td></tr><tr><td style="font-weight:bold;vertical-align:top;">controller</td><td style="vertical-align:top;">:</td><td><div>default</div></td></tr><tr><td style="font-weight:bold;vertical-align:top;">cookies</td><td style="vertical-align:top;">:</td><td><div><table><tr><td style="font-weight:bold;vertical-align:top;">session_id_admin</td><td style="vertical-align:top;">:</td><td><div>127.0.0.1-eb0584ef-b6d4-4547-b804-08344a0a845e<table><tr><td style="font-weight:bold;vertical-align:top;">comment</td><td style="vertical-align:top;">:</td><td><div></div></td></tr><tr><td style="font-weight:bold;vertical-align:top;">domain</td><td style="vertical-align:top;">:</td><td><div></div></td></tr><tr><td style="font-weight:bold;vertical-align:top;">expires</td><td style="vertical-align:top;">:</td><td><div></div></td></tr><tr><td style="font-weight:bold;vertical-align:top;">httponly</td><td style="vertical-align:top;">:</td><td><div></div></td></tr><tr><td style="font-weight:bold;vertical-align:top;">max-age</td><td style="vertical-align:top;">:</td><td><div></div></td></tr><tr><td style="font-weight:bold;vertical-align:top;">path</td><td style="vertical-align:top;">:</td><td><div></div></td></tr><tr><td style="font-weight:bold;vertical-align:top;">secure</td><td style="vertical-align:top;">:</td><td><div></div></td></tr><tr><td style="font-weight:bold;vertical-align:top;">version</td><td style="vertical-align:top;">:</td><td><div></div></td></tr></table></div></td></tr><tr><td style="font-weight:bold;vertical-align:top;">session_id_sigulab</td><td style="vertical-align:top;">:</td><td><div>127.0.0.1-90705daf-d3c4-4545-a78e-311961a8c9dd<table><tr><td style="font-weight:bold;vertical-align:top;">comment</td><td style="vertical-align:top;">:</td><td><div></div></td></tr><tr><td style="font-weight:bold;vertical-align:top;">domain</td><td style="vertical-align:top;">:</td><td><div></div></td></tr><tr><td style="font-weight:bold;vertical-align:top;">expires</td><td style="vertical-align:top;">:</td><td><div></div></td></tr><tr><td style="font-weight:bold;vertical-align:top;">httponly</td><td style="vertical-align:top;">:</td><td><div></div></td></tr><tr><td style="font-weight:bold;vertical-align:top;">max-age</td><td style="vertical-align:top;">:</td><td><div></div></td></tr><tr><td style="font-weight:bold;vertical-align:top;">path</td><td style="vertical-align:top;">:</td><td><div></div></td></tr><tr><td style="font-weight:bold;vertical-align:top;">secure</td><td style="vertical-align:top;">:</td><td><div></div></td></tr><tr><td style="font-weight:bold;vertical-align:top;">version</td><td style="vertical-align:top;">:</td><td><div></div></td></tr></table></div></td></tr></table></div></td></tr><tr><td style="font-weight:bold;vertical-align:top;">env</td><td style="vertical-align:top;">:</td><td><div><table><tr><td style="font-weight:bold;vertical-align:top;">HTTP_ACCEPT</td><td style="vertical-align:top;">:</td><td><div>text/html,application/xhtml+xml,application/xml;q=0.9,image/webp,*/*;q=0.8</div></td></tr><tr><td style="font-weight:bold;vertical-align:top;">HTTP_ACCEPT_ENCODING</td><td style="vertical-align:top;">:</td><td><div>gzip, deflate, sdch, br</div></td></tr><tr><td style="font-weight:bold;vertical-align:top;">HTTP_ACCEPT_LANGUAGE</td><td style="vertical-align:top;">:</td><td><div>es,en;q=0.8</div></td></tr><tr><td style="font-weight:bold;vertical-align:top;">HTTP_CACHE_CONTROL</td><td style="vertical-align:top;">:</td><td><div>max-age=0</div></td></tr><tr><td style="font-weight:bold;vertical-align:top;">HTTP_CONNECTION</td><td style="vertical-align:top;">:</td><td><div>keep-alive</div></td></tr><tr><td style="font-weight:bold;vertical-align:top;">HTTP_COOKIE</td><td style="vertical-align:top;">:</td><td><div>session_id_sigulab=127.0.0.1-90705daf-d3c4-4545-a78e-311961a8c9dd; session_id_admin=127.0.0.1-eb0584ef-b6d4-4547-b804-08344a0a845e</div></td></tr><tr><td style="font-weight:bold;vertical-align:top;">HTTP_DNT</td><td style="vertical-align:top;">:</td><td><div>1</div></td></tr><tr><td style="font-weight:bold;vertical-align:top;">HTTP_HOST</td><td style="vertical-align:top;">:</td><td><div>127.0.0.1:8000</div></td></tr><tr><td style="font-weight:bold;vertical-align:top;">HTTP_REFERER</td><td style="vertical-align:top;">:</td><td><div>http://127.0.0.1:8000/front_page</div></td></tr><tr><td style="font-weight:bold;vertical-align:top;">HTTP_UPGRADE_INSECURE_REQUESTS</td><td style="vertical-align:top;">:</td><td><div>1</div></td></tr><tr><td style="font-weight:bold;vertical-align:top;">HTTP_USER_AGENT</td><td style="vertical-align:top;">:</td><td><div>Mozilla/5.0 (X11; Linux x86_64) AppleWebKit/537.36 (KHTML, like Gecko) Chrome/56.0.2924.87 Safari/537.36</div></td></tr><tr><td style="font-weight:bold;vertical-align:top;">PATH_INFO</td><td style="vertical-align:top;">:</td><td><div>/</div></td></tr><tr><td style="font-weight:bold;vertical-align:top;">QUERY_STRING</td><td style="vertical-align:top;">:</td><td><div></div></td></tr><tr><td style="font-weight:bold;vertical-align:top;">REMOTE_ADDR</td><td style="vertical-align:top;">:</td><td><div>127.0.0.1</div></td></tr><tr><td style="font-weight:bold;vertical-align:top;">REMOTE_PORT</td><td style="vertical-align:top;">:</td><td><div>48850</div></td></tr><tr><td style="font-weight:bold;vertical-align:top;">REQUEST_METHOD</td><td style="vertical-align:top;">:</td><td><div>GET</div></td></tr><tr><td style="font-weight:bold;vertical-align:top;">SCRIPT_NAME</td><td style="vertical-align:top;">:</td><td><div></div></td></tr><tr><td style="font-weight:bold;vertical-align:top;">SERVER_NAME</td><td style="vertical-align:top;">:</td><td><div>adolfo-PC</div></td></tr><tr><td style="font-weight:bold;vertical-align:top;">SERVER_PORT</td><td style="vertical-align:top;">:</td><td><div>8000</div></td></tr><tr><td style="font-weight:bold;vertical-align:top;">SERVER_PROTOCOL</td><td style="vertical-align:top;">:</td><td><div>HTTP/1.1</div></td></tr><tr><td style="font-weight:bold;vertical-align:top;">SERVER_SOFTWARE</td><td style="vertical-align:top;">:</td><td><div>Rocket 1.2.6</div></td></tr><tr><td style="font-weight:bold;vertical-align:top;">app_folders</td><td style="vertical-align:top;">:</td><td><div>set([&#x27;/home/adolfo/Desktop/PROYECTO ULAB/applications/admin/&#x27;, &#x27;/home/adolfo/Desktop/PROYECTO ULAB/applications/SIGULAB/&#x27;])</div></td></tr><tr><td style="font-weight:bold;vertical-align:top;">applications_parent</td><td style="vertical-align:top;">:</td><td><div>/home/adolfo/Desktop/PROYECTO ULAB</div></td></tr><tr><td style="font-weight:bold;vertical-align:top;">cmd_args</td><td style="vertical-align:top;">:</td><td><div><table></table></div></td></tr><tr><td style="font-weight:bold;vertical-align:top;">cmd_options</td><td style="vertical-align:top;">:</td><td><div>&lt;Values at 0x7ff6e9f21680: {&#x27;verbose&#x27;: False, &#x27;ip&#x27;: &#x27;127.0.0.1&#x27;, &#x27;debuglevel&#x27;: 30, &#x27;with_scheduler&#x27;: False, &#x27;shutdown_timeout&#x27;: 5, &#x27;taskbar&#x27;: False, &#x27;with_coverage&#x27;: False, &#x27;pid_filename&#x27;: &#x27;httpserver.pid&#x27;, &#x27;maxthreads&#x27;: None, &#x27;softcron&#x27;: False, &#x27;server_name&#x27;: &#x27;adolfo-PC&#x27;, &#x27;bpython&#x27;: False, &#x27;nogui&#x27;: False, &#x27;port&#x27;: 8000, &#x27;print_errors&#x27;: False, &#x27;extcron&#x27;: False, &#x27;runcron&#x27;: False, &#x27;run_system_tests&#x27;: False, &#x27;test&#x27;: None, &#x27;folder&#x27;: &#x27;/home/adolfo/Desktop/PROYECTO ULAB&#x27;, &#x27;config&#x27;: &#x27;&#x27;, &#x27;minthreads&#x27;: None, &#x27;shell&#x27;: None, &#x27;run&#x27;: &#x27;&#x27;, &#x27;log_filename&#x27;: &#x27;httpserver.log&#x27;, &#x27;profiler_dir&#x27;: None, &#x27;args&#x27;: [&#x27;&#x27;], &#x27;socket_timeout&#x27;: 5, &#x27;ssl_ca_certificate&#x27;: None, &#x27;scheduler&#x27;: None, &#x27;interfaces&#x27;: None, &#x27;ssl_private_key&#x27;: &#x27;&#x27;, &#x27;gae&#x27;: None, &#x27;password&#x27;: &#x27;******&#x27;, &#x27;request_queue_size&#x27;: 5, &#x27;ssl_certificate&#x27;: &#x27;&#x27;, &#x27;cronjob&#x27;: False, &#x27;numthreads&#x27;: None, &#x27;quiet&#x27;: False, &#x27;import_models&#x27;: False, &#x27;timeout&#x27;: 10, &#x27;plain&#x27;: False, &#x27;nobanner&#x27;: False}&gt;</div></td></tr><tr><td style="font-weight:bold;vertical-align:top;">db_sessions</td><td style="vertical-align:top;">:</td><td><div>set([])</div></td></tr><tr><td style="font-weight:bold;vertical-align:top;">debugging</td><td style="vertical-align:top;">:</td><td><div>False</div></td></tr><tr><td style="font-weight:bold;vertical-align:top;">gluon_parent</td><td style="vertical-align:top;">:</td><td><div>/home/adolfo/Desktop/PROYECTO ULAB</div></td></tr><tr><td style="font-weight:bold;vertical-align:top;">http_accept</td><td style="vertical-align:top;">:</td><td><div>text/html,application/xhtml+xml,application/xml;q=0.9,image/webp,*/*;q=0.8</div></td></tr><tr><td style="font-weight:bold;vertical-align:top;">http_accept_encoding</td><td style="vertical-align:top;">:</td><td><div>gzip, deflate, sdch, br</div></td></tr><tr><td style="font-weight:bold;vertical-align:top;">http_accept_language</td><td style="vertical-align:top;">:</td><td><div>es,en;q=0.8</div></td></tr><tr><td style="font-weight:bold;vertical-align:top;">http_cache_control</td><td style="vertical-align:top;">:</td><td><div>max-age=0</div></td></tr><tr><td style="font-weight:bold;vertical-align:top;">http_connection</td><td style="vertical-align:top;">:</td><td><div>keep-alive</div></td></tr><tr><td style="font-weight:bold;vertical-align:top;">http_cookie</td><td style="vertical-align:top;">:</td><td><div>session_id_sigulab=127.0.0.1-90705daf-d3c4-4545-a78e-311961a8c9dd; session_id_admin=127.0.0.1-eb0584ef-b6d4-4547-b804-08344a0a845e</div></td></tr><tr><td style="font-weight:bold;vertical-align:top;">http_dnt</td><td style="vertical-align:top;">:</td><td><div>1</div></td></tr><tr><td style="font-weight:bold;vertical-align:top;">http_host</td><td style="vertical-align:top;">:</td><td><div>127.0.0.1:8000</div></td></tr><tr><td style="font-weight:bold;vertical-align:top;">http_referer</td><td style="vertical-align:top;">:</td><td><div>http://127.0.0.1:8000/front_page</div></td></tr><tr><td style="font-weight:bold;vertical-align:top;">http_upgrade_insecure_requests</td><td style="vertical-align:top;">:</td><td><div>1</div></td></tr><tr><td style="font-weight:bold;vertical-align:top;">http_user_agent</td><td style="vertical-align:top;">:</td><td><div>Mozilla/5.0 (X11; Linux x86_64) AppleWebKit/537.36 (KHTML, like Gecko) Chrome/56.0.2924.87 Safari/537.36</div></td></tr><tr><td style="font-weight:bold;vertical-align:top;">is_jython</td><td style="vertical-align:top;">:</td><td><div>False</div></td></tr><tr><td style="font-weight:bold;vertical-align:top;">is_pypy</td><td style="vertical-align:top;">:</td><td><div>False</div></td></tr><tr><td style="font-weight:bold;vertical-align:top;">is_source</td><td style="vertical-align:top;">:</td><td><div>True</div></td></tr><tr><td style="font-weight:bold;vertical-align:top;">local_hosts</td><td style="vertical-align:top;">:</td><td><div><table><tr><td><div>127.0.1.1</div></td></tr><tr><td><div>::1</div></td></tr><tr><td><div>adolfo-PC</div></td></tr><tr><td><div>::ffff:127.0.0.1</div></td></tr><tr><td><div>127.0.0.1</div></td></tr></table></div></td></tr><tr><td style="font-weight:bold;vertical-align:top;">path_info</td><td style="vertical-align:top;">:</td><td><div>/</div></td></tr><tr><td style="font-weight:bold;vertical-align:top;">query_string</td><td style="vertical-align:top;">:</td><td><div></div></td></tr><tr><td style="font-weight:bold;vertical-align:top;">remote_addr</td><td style="vertical-align:top;">:</td><td><div>127.0.0.1</div></td></tr><tr><td style="font-weight:bold;vertical-align:top;">remote_port</td><td style="vertical-align:top;">:</td><td><div>48850</div></td></tr><tr><td style="font-weight:bold;vertical-align:top;">request_method</td><td style="vertical-align:top;">:</td><td><div>GET</div></td></tr><tr><td style="font-weight:bold;vertical-align:top;">request_uri</td><td style="vertical-align:top;">:</td><td><div>/SIGULAB/default/index</div></td></tr><tr><td style="font-weight:bold;vertical-align:top;">script_name</td><td style="vertical-align:top;">:</td><td><div></div></td></tr><tr><td style="font-weight:bold;vertical-align:top;">server_name</td><td style="vertical-align:top;">:</td><td><div>adolfo-PC</div></td></tr><tr><td style="font-weight:bold;vertical-align:top;">server_port</td><td style="vertical-align:top;">:</td><td><div>8000</div></td></tr><tr><td style="font-weight:bold;vertical-align:top;">server_protocol</td><td style="vertical-align:top;">:</td><td><div>HTTP/1.1</div></td></tr><tr><td style="font-weight:bold;vertical-align:top;">server_software</td><td style="vertical-align:top;">:</td><td><div>Rocket 1.2.6</div></td></tr><tr><td style="font-weight:bold;vertical-align:top;">web2py_original_uri</td><td style="vertical-align:top;">:</td><td><div>/</div></td></tr><tr><td style="font-weight:bold;vertical-align:top;">web2py_path</td><td style="vertical-align:top;">:</td><td><div>/home/adolfo/Desktop/PROYECTO ULAB</div></td></tr><tr><td style="font-weight:bold;vertical-align:top;">web2py_version</td><td style="vertical-align:top;">:</td><td><div>2.14.6-stable+timestamp.2016.05.10.00.21.47</div></td></tr><tr><td style="font-weight:bold;vertical-align:top;">wsgi.errors</td><td style="vertical-align:top;">:</td><td><div>&lt;open file &#x27;&lt;stderr&gt;&#x27;, mode &#x27;w&#x27; at 0x7ff6f4ced1e0&gt;</div></td></tr><tr><td style="font-weight:bold;vertical-align:top;">wsgi.file_wrapper</td><td style="vertical-align:top;">:</td><td><div>&lt;class wsgiref.util.FileWrapper at 0x7ff6e9fd2120&gt;</div></td></tr><tr><td style="font-weight:bold;vertical-align:top;">wsgi.input</td><td style="vertical-align:top;">:</td><td><div>&lt;socket._fileobject object at 0x7ff6bd3ec0d0&gt;</div></td></tr><tr><td style="font-weight:bold;vertical-align:top;">wsgi.multiprocess</td><td style="vertical-align:top;">:</td><td><div>False</div></td></tr><tr><td style="font-weight:bold;vertical-align:top;">wsgi.multithread</td><td style="vertical-align:top;">:</td><td><div>True</div></td></tr><tr><td style="font-weight:bold;vertical-align:top;">wsgi.run_once</td><td style="vertical-align:top;">:</td><td><div>False</div></td></tr><tr><td style="font-weight:bold;vertical-align:top;">wsgi.url_scheme</td><td style="vertical-align:top;">:</td><td><div>http</div></td></tr><tr><td style="font-weight:bold;vertical-align:top;">wsgi.version</td><td style="vertical-align:top;">:</td><td><div><table><tr><td><div>1</div></td></tr><tr><td><div>0</div></td></tr></table></div></td></tr><tr><td style="font-weight:bold;vertical-align:top;">wsgi_errors</td><td style="vertical-align:top;">:</td><td><div>&lt;open file &#x27;&lt;stderr&gt;&#x27;, mode &#x27;w&#x27; at 0x7ff6f4ced1e0&gt;</div></td></tr><tr><td style="font-weight:bold;vertical-align:top;">wsgi_file_wrapper</td><td style="vertical-align:top;">:</td><td><div>&lt;class wsgiref.util.FileWrapper at 0x7ff6e9fd2120&gt;</div></td></tr><tr><td style="font-weight:bold;vertical-align:top;">wsgi_input</td><td style="vertical-align:top;">:</td><td><div>&lt;socket._fileobject object at 0x7ff6bd3ec0d0&gt;</div></td></tr><tr><td style="font-weight:bold;vertical-align:top;">wsgi_multiprocess</td><td style="vertical-align:top;">:</td><td><div>False</div></td></tr><tr><td style="font-weight:bold;vertical-align:top;">wsgi_multithread</td><td style="vertical-align:top;">:</td><td><div>True</div></td></tr><tr><td style="font-weight:bold;vertical-align:top;">wsgi_run_once</td><td style="vertical-align:top;">:</td><td><div>False</div></td></tr><tr><td style="font-weight:bold;vertical-align:top;">wsgi_url_scheme</td><td style="vertical-align:top;">:</td><td><div>http</div></td></tr><tr><td style="font-weight:bold;vertical-align:top;">wsgi_version</td><td style="vertical-align:top;">:</td><td><div><table><tr><td><div>1</div></td></tr><tr><td><div>0</div></td></tr></table></div></td></tr></table></div></td></tr><tr><td style="font-weight:bold;vertical-align:top;">extension</td><td style="vertical-align:top;">:</td><td><div>html</div></td></tr><tr><td style="font-weight:bold;vertical-align:top;">folder</td><td style="vertical-align:top;">:</td><td><div>/home/adolfo/Desktop/PROYECTO ULAB/applications/SIGULAB/</div></td></tr><tr><td style="font-weight:bold;vertical-align:top;">function</td><td style="vertical-align:top;">:</td><td><div>index</div></td></tr><tr><td style="font-weight:bold;vertical-align:top;">global_settings</td><td style="vertical-align:top;">:</td><td><div><table><tr><td style="font-weight:bold;vertical-align:top;">app_folders</td><td style="vertical-align:top;">:</td><td><div>set([&#x27;/home/adolfo/Desktop/PROYECTO ULAB/applications/admin/&#x27;, &#x27;/home/adolfo/Desktop/PROYECTO ULAB/applications/SIGULAB/&#x27;])</div></td></tr><tr><td style="font-weight:bold;vertical-align:top;">applications_parent</td><td style="vertical-align:top;">:</td><td><div>/home/adolfo/Desktop/PROYECTO ULAB</div></td></tr><tr><td style="font-weight:bold;vertical-align:top;">cmd_args</td><td style="vertical-align:top;">:</td><td><div><table></table></div></td></tr><tr><td style="font-weight:bold;vertical-align:top;">cmd_options</td><td style="vertical-align:top;">:</td><td><div>&lt;Values at 0x7ff6e9f21680: {&#x27;verbose&#x27;: False, &#x27;ip&#x27;: &#x27;127.0.0.1&#x27;, &#x27;debuglevel&#x27;: 30, &#x27;with_scheduler&#x27;: False, &#x27;shutdown_timeout&#x27;: 5, &#x27;taskbar&#x27;: False, &#x27;with_coverage&#x27;: False, &#x27;pid_filename&#x27;: &#x27;httpserver.pid&#x27;, &#x27;maxthreads&#x27;: None, &#x27;softcron&#x27;: False, &#x27;server_name&#x27;: &#x27;adolfo-PC&#x27;, &#x27;bpython&#x27;: False, &#x27;nogui&#x27;: False, &#x27;port&#x27;: 8000, &#x27;print_errors&#x27;: False, &#x27;extcron&#x27;: False, &#x27;runcron&#x27;: False, &#x27;run_system_tests&#x27;: False, &#x27;test&#x27;: None, &#x27;folder&#x27;: &#x27;/home/adolfo/Desktop/PROYECTO ULAB&#x27;, &#x27;config&#x27;: &#x27;&#x27;, &#x27;minthreads&#x27;: None, &#x27;shell&#x27;: None, &#x27;run&#x27;: &#x27;&#x27;, &#x27;log_filename&#x27;: &#x27;httpserver.log&#x27;, &#x27;profiler_dir&#x27;: None, &#x27;args&#x27;: [&#x27;&#x27;], &#x27;socket_timeout&#x27;: 5, &#x27;ssl_ca_certificate&#x27;: None, &#x27;scheduler&#x27;: None, &#x27;interfaces&#x27;: None, &#x27;ssl_private_key&#x27;: &#x27;&#x27;, &#x27;gae&#x27;: None, &#x27;password&#x27;: &#x27;******&#x27;, &#x27;request_queue_size&#x27;: 5, &#x27;ssl_certificate&#x27;: &#x27;&#x27;, &#x27;cronjob&#x27;: False, &#x27;numthreads&#x27;: None, &#x27;quiet&#x27;: False, &#x27;import_models&#x27;: False, &#x27;timeout&#x27;: 10, &#x27;plain&#x27;: False, &#x27;nobanner&#x27;: False}&gt;</div></td></tr><tr><td style="font-weight:bold;vertical-align:top;">db_sessions</td><td style="vertical-align:top;">:</td><td><div>set([])</div></td></tr><tr><td style="font-weight:bold;vertical-align:top;">debugging</td><td style="vertical-align:top;">:</td><td><div>False</div></td></tr><tr><td style="font-weight:bold;vertical-align:top;">gluon_parent</td><td style="vertical-align:top;">:</td><td><div>/home/adolfo/Desktop/PROYECTO ULAB</div></td></tr><tr><td style="font-weight:bold;vertical-align:top;">is_jython</td><td style="vertical-align:top;">:</td><td><div>False</div></td></tr><tr><td style="font-weight:bold;vertical-align:top;">is_pypy</td><td style="vertical-align:top;">:</td><td><div>False</div></td></tr><tr><td style="font-weight:bold;vertical-align:top;">is_source</td><td style="vertical-align:top;">:</td><td><div>True</div></td></tr><tr><td style="font-weight:bold;vertical-align:top;">local_hosts</td><td style="vertical-align:top;">:</td><td><div><table><tr><td><div>127.0.1.1</div></td></tr><tr><td><div>::1</div></td></tr><tr><td><div>adolfo-PC</div></td></tr><tr><td><div>::ffff:127.0.0.1</div></td></tr><tr><td><div>127.0.0.1</div></td></tr></table></div></td></tr><tr><td style="font-weight:bold;vertical-align:top;">web2py_version</td><td style="vertical-align:top;">:</td><td><div>2.14.6-stable+timestamp.2016.05.10.00.21.47</div></td></tr></table></div></td></tr><tr><td style="font-weight:bold;vertical-align:top;">is_https</td><td style="vertical-align:top;">:</td><td><div>False</div></td></tr><tr><td style="font-weight:bold;vertical-align:top;">is_local</td><td style="vertical-align:top;">:</td><td><div>True</div></td></tr><tr><td style="font-weight:bold;vertical-align:top;">is_restful</td><td style="vertical-align:top;">:</td><td><div>False</div></td></tr><tr><td style="font-weight:bold;vertical-align:top;">is_scheduler</td><td style="vertical-align:top;">:</td><td><div>False</div></td></tr><tr><td style="font-weight:bold;vertical-align:top;">is_shell</td><td style="vertical-align:top;">:</td><td><div>False</div></td></tr><tr><td style="font-weight:bold;vertical-align:top;">now</td><td style="vertical-align:top;">:</td><td><div>datetime.datetime(2017, 2, 13, 17, 25, 35, 471937)</div></td></tr><tr><td style="font-weight:bold;vertical-align:top;">url</td><td style="vertical-align:top;">:</td><td><div>/</div></td></tr><tr><td style="font-weight:bold;vertical-align:top;">utcnow</td><td style="vertical-align:top;">:</td><td><div>datetime.datetime(2017, 2, 13, 21, 25, 35, 472005)</div></td></tr><tr><td style="font-weight:bold;vertical-align:top;">wsgi</td><td style="vertical-align:top;">:</td><td><div>&lt;gluon.main.LazyWSGI object at 0x7ff6a706b210&gt;</div></td></tr></table></div>'
tRp69
sS'frames'
p70
(lp71
(dp72
S'file'
p73
S'/home/adolfo/Desktop/PROYECTO ULAB/gluon/restricted.py'
p74
sS'dump'
p75
(dp76
S'code'
p77
S'"def populate_db:\\n    db.t_sustancias.insert(f_no...tado=\'1\', f_control=\'4\', f_peligrosidad=\'Nocivo\')"'
p78
sS'layer'
p79
S"'/home/adolfo/Desktop/PROYECTO ULAB/applications/SIGULAB/models/populate.py'"
p80
sS'global compile2'
p81
S'<function compile2>'
p82
sS'ccode'
p83
S'undefined'
p84
ssS'lnum'
p85
I226
sS'lines'
p86
(dp87
I224
S'            ccode = code'
p88
sI225
S'        else:'
p89
sI226
S'            ccode = compile2(code, layer)'
p90
sI227
S'        exec ccode in environment'
p91
sI228
S'    except HTTP:'
p92
sI229
S'        raise'
p93
sI230
S'    except RestrictedError:'
p94
sI221
S"    environment['__name__'] = '__restricted__'"
p95
sI222
S'    try:'
p96
sI223
S'        if isinstance(code, types.CodeType):'
p97
ssS'call'
p98
S'(code="def populate_db:\\n    db.t_sustancias.insert(f_no...tado=\'1\', f_control=\'4\', f_peligrosidad=\'Nocivo\')", environment={\'A\': <class \'gluon.html.A\'>, \'ANY_OF\': <class \'gluon.validators.ANY_OF\'>, \'ASSIGNJS\': <function ASSIGNJS>, \'AppConfig\': <function AppConfig>, \'Auth\': <class \'gluon.tools.Auth\'>, \'B\': <class \'gluon.html.B\'>, \'BEAUTIFY\': <class \'gluon.html.BEAUTIFY\'>, \'BODY\': <class \'gluon.html.BODY\'>, \'BR\': <class \'gluon.html.BR\'>, \'BUTTON\': <class \'gluon.html.BUTTON\'>, ...}, layer=\'/home/adolfo/Desktop/PROYECTO ULAB/applications/SIGULAB/models/populate.py\')'
p99
sS'func'
p100
S'restricted'
p101
sa(dp102
g73
S'/home/adolfo/Desktop/PROYECTO ULAB/gluon/restricted.py'
p103
sg75
(dp104
S'builtincompile'
p105
S'<built-in function compile>'
p106
sS'code'
p107
S'"def populate_db:\\n    db.t_sustancias.insert(f_no...tado=\'1\', f_control=\'4\', f_peligrosidad=\'Nocivo\')"'
p108
sS'code.rstrip'
p109
S'<built-in method rstrip of str object>'
p110
sS').replace'
p111
g84
sS'layer'
p112
S"'/home/adolfo/Desktop/PROYECTO ULAB/applications/SIGULAB/models/populate.py'"
p113
ssg85
I209
sg86
(dp114
I204
S'def compile2(code, layer):'
p115
sI205
S'    """'
p116
sI206
S"    The ``+'\\\\n'`` is necessary else compile fails when code ends in a comment."
p117
sI207
S'    """'
p118
sI208
S''
sI209
S"    return compile(code.rstrip().replace('\\r\\n', '\\n') + '\\n', layer, 'exec')"
p119
sI210
S''
sI211
S''
sI212
S"def restricted(code, environment=None, layer='Unknown'):"
p120
sI213
S'    """'
p121
ssg98
S'(code="def populate_db:\\n    db.t_sustancias.insert(f_no...tado=\'1\', f_control=\'4\', f_peligrosidad=\'Nocivo\')", layer=\'/home/adolfo/Desktop/PROYECTO ULAB/applications/SIGULAB/models/populate.py\')'
p122
sg100
S'compile2'
p123
sasS'pyver'
p124
S'Python 2.7.12: /usr/bin/python (prefix: /usr)'
p125
sS'session'
p126
g68
(S's\xfb\t\x00\x00<div><table><tr><td style="font-weight:bold;vertical-align:top;">auth</td><td style="vertical-align:top;">:</td><td><div><table><tr><td style="font-weight:bold;vertical-align:top;">expiration</td><td style="vertical-align:top;">:</td><td><div>3600</div></td></tr><tr><td style="font-weight:bold;vertical-align:top;">hmac_key</td><td style="vertical-align:top;">:</td><td><div>9d352aeb-f308-4f3c-bdeb-a498650c1e0d</div></td></tr><tr><td style="font-weight:bold;vertical-align:top;">last_visit</td><td style="vertical-align:top;">:</td><td><div>datetime.datetime(2017, 2, 13, 17, 20, 26, 523533)</div></td></tr><tr><td style="font-weight:bold;vertical-align:top;">remember_me</td><td style="vertical-align:top;">:</td><td><div>False</div></td></tr><tr><td style="font-weight:bold;vertical-align:top;">user</td><td style="vertical-align:top;">:</td><td><div><table><tr><td style="font-weight:bold;vertical-align:top;">autorizado</td><td style="vertical-align:top;">:</td><td><div>False</div></td></tr><tr><td style="font-weight:bold;vertical-align:top;">cargo</td><td style="vertical-align:top;">:</td><td><div>None</div></td></tr><tr><td style="font-weight:bold;vertical-align:top;">email</td><td style="vertical-align:top;">:</td><td><div>webmaster@sigulab.com</div></td></tr><tr><td style="font-weight:bold;vertical-align:top;">first_name</td><td style="vertical-align:top;">:</td><td><div>Super</div></td></tr><tr><td style="font-weight:bold;vertical-align:top;">id</td><td style="vertical-align:top;">:</td><td><div>1L</div></td></tr><tr><td style="font-weight:bold;vertical-align:top;">last_name</td><td style="vertical-align:top;">:</td><td><div>Usuario</div></td></tr><tr><td style="font-weight:bold;vertical-align:top;">registration_id</td><td style="vertical-align:top;">:</td><td><div></div></td></tr><tr><td style="font-weight:bold;vertical-align:top;">registration_key</td><td style="vertical-align:top;">:</td><td><div></div></td></tr><tr><td style="font-weight:bold;vertical-align:top;">reset_password_key</td><td style="vertical-align:top;">:</td><td><div></div></td></tr></table></div></td></tr><tr><td style="font-weight:bold;vertical-align:top;">user_groups</td><td style="vertical-align:top;">:</td><td><div><table><tr><td style="font-weight:bold;vertical-align:top;">1</td><td style="vertical-align:top;">:</td><td><div>WebMaster</div></td></tr></table></div></td></tr></table></div></td></tr><tr><td style="font-weight:bold;vertical-align:top;">flash</td><td style="vertical-align:top;">:</td><td><div>None</div></td></tr></table></div>'
tRp127
sS'etype'
p128
S"<type 'exceptions.SyntaxError'>"
p129
sS'date'
p130
S'Mon Feb 13 17:25:35 2017'
p131
sS'response'
p132
g68
(S's\x87&\x00\x00<div><table><tr><td style="font-weight:bold;vertical-align:top;">body</td><td style="vertical-align:top;">:</td><td><div>&lt;cStringIO.StringO object at 0x7ff6a70b7308&gt;</div></td></tr><tr><td style="font-weight:bold;vertical-align:top;">cookies</td><td style="vertical-align:top;">:</td><td><div><table><tr><td style="font-weight:bold;vertical-align:top;">session_id_sigulab</td><td style="vertical-align:top;">:</td><td><div>127.0.0.1-90705daf-d3c4-4545-a78e-311961a8c9dd<table><tr><td style="font-weight:bold;vertical-align:top;">comment</td><td style="vertical-align:top;">:</td><td><div></div></td></tr><tr><td style="font-weight:bold;vertical-align:top;">domain</td><td style="vertical-align:top;">:</td><td><div></div></td></tr><tr><td style="font-weight:bold;vertical-align:top;">expires</td><td style="vertical-align:top;">:</td><td><div></div></td></tr><tr><td style="font-weight:bold;vertical-align:top;">httponly</td><td style="vertical-align:top;">:</td><td><div></div></td></tr><tr><td style="font-weight:bold;vertical-align:top;">max-age</td><td style="vertical-align:top;">:</td><td><div></div></td></tr><tr><td style="font-weight:bold;vertical-align:top;">path</td><td style="vertical-align:top;">:</td><td><div>/</div></td></tr><tr><td style="font-weight:bold;vertical-align:top;">secure</td><td style="vertical-align:top;">:</td><td><div></div></td></tr><tr><td style="font-weight:bold;vertical-align:top;">version</td><td style="vertical-align:top;">:</td><td><div></div></td></tr></table></div></td></tr></table></div></td></tr><tr><td style="font-weight:bold;vertical-align:top;">delimiters</td><td style="vertical-align:top;">:</td><td><div><table><tr><td><div>{{</div></td></tr><tr><td><div>}}</div></td></tr></table></div></td></tr><tr><td style="font-weight:bold;vertical-align:top;">files</td><td style="vertical-align:top;">:</td><td><div><table></table></div></td></tr><tr><td style="font-weight:bold;vertical-align:top;">flash</td><td style="vertical-align:top;">:</td><td><div></div></td></tr><tr><td style="font-weight:bold;vertical-align:top;">form_label_separator</td><td style="vertical-align:top;">:</td><td><div></div></td></tr><tr><td style="font-weight:bold;vertical-align:top;">formstyle</td><td style="vertical-align:top;">:</td><td><div>bootstrap3_inline</div></td></tr><tr><td style="font-weight:bold;vertical-align:top;">generic_patterns</td><td style="vertical-align:top;">:</td><td><div><table><tr><td><div>*</div></td></tr></table></div></td></tr><tr><td style="font-weight:bold;vertical-align:top;">headers</td><td style="vertical-align:top;">:</td><td><div><table><tr><td style="font-weight:bold;vertical-align:top;">X-Powered-By</td><td style="vertical-align:top;">:</td><td><div>web2py</div></td></tr></table></div></td></tr><tr><td style="font-weight:bold;vertical-align:top;">menu</td><td style="vertical-align:top;">:</td><td><div><table><tr><td><div><table><tr><td><div>Inicio</div></td></tr><tr><td><div>True</div></td></tr><tr><td><div>/</div></td></tr><tr><td><div><table></table></div></td></tr></table></div></td></tr><tr><td><div><table><tr><td><div>SMyDP</div></td></tr><tr><td><div>False</div></td></tr><tr><td><div>None</div></td></tr><tr><td><div><table><tr><td><div><table><tr><td><div>Inventario</div></td></tr><tr><td><div>/sustancias/select_inventario</div></td></tr><tr><td><div>/sustancias/select_inventario</div></td></tr></table></div></td></tr><tr><td><div><table><tr><td><div>Listado de Sustancias</div></td></tr><tr><td><div>/sustancias/sustanciapeligrosa_manage</div></td></tr><tr><td><div>/sustancias/sustanciapeligrosa_manage</div></td></tr></table></div></td></tr></table></div></td></tr></table></div></td></tr><tr><td><div><table><tr><td><div>Solicitudes</div></td></tr><tr><td><div>False</div></td></tr><tr><td><div>None</div></td></tr><tr><td><div><table><tr><td><div><table><tr><td><div>Entrada</div></td></tr><tr><td><div>/s_entrada/entrada</div></td></tr><tr><td><div>/s_entrada/entrada</div></td></tr></table></div></td></tr><tr><td><div><table><tr><td><div>Salida</div></td></tr><tr><td><div>/s_entrada/salida</div></td></tr><tr><td><div>/s_entrada/salida</div></td></tr></table></div></td></tr></table></div></td></tr></table></div></td></tr><tr><td><div><table><tr><td><div>Prestamos</div></td></tr><tr><td><div>False</div></td></tr><tr><td><div>None</div></td></tr><tr><td><div><table><tr><td><div><table><tr><td><div>Por devolver</div></td></tr><tr><td><div>/s_entrada/p_por_devolver</div></td></tr><tr><td><div>/s_entrada/p_por_devolver</div></td></tr></table></div></td></tr><tr><td><div><table><tr><td><div>Por recibir</div></td></tr><tr><td><div>/s_entrada/p_por_recibir</div></td></tr><tr><td><div>/s_entrada/p_por_recibir</div></td></tr></table></div></td></tr></table></div></td></tr></table></div></td></tr><tr><td><div><table><tr><td><div>Gesti\xc3\xb3n</div></td></tr><tr><td><div>False</div></td></tr><tr><td><div>None</div></td></tr><tr><td><div><table><tr><td><div><table><tr><td><div>Usuarios Registrados</div></td></tr><tr><td><div>False</div></td></tr><tr><td><div>/gestion/usuarios</div></td></tr></table></div></td></tr><tr><td><div><table><tr><td><div>Lista de Autorizados</div></td></tr><tr><td><div>False</div></td></tr><tr><td><div>/gestion/autorizados</div></td></tr></table></div></td></tr><tr><td><div><table><tr><td><div>Pendientes de confirmaci\xc3\xb3n (0)</div></td></tr><tr><td><div>False</div></td></tr><tr><td><div>/gestion/pendientes</div></td></tr></table></div></td></tr><tr><td><div><table><tr><td><div>Privilegios</div></td></tr><tr><td><div>False</div></td></tr><tr><td><div>/gestion/privilegios</div></td></tr></table></div></td></tr><tr><td><div><table><tr><td><div>Membresia</div></td></tr><tr><td><div>False</div></td></tr><tr><td><div>/gestion/membresia</div></td></tr></table></div></td></tr></table></div></td></tr></table></div></td></tr><tr><td><div><table><tr><td><div>Editar</div></td></tr><tr><td><div>False</div></td></tr><tr><td><div>/admin/design/SIGULAB</div></td></tr></table></div></td></tr></table></div></td></tr><tr><td style="font-weight:bold;vertical-align:top;">meta</td><td style="vertical-align:top;">:</td><td><div><table><tr><td style="font-weight:bold;vertical-align:top;">author</td><td style="vertical-align:top;">:</td><td><div>Lambda &lt;you@example.com&gt;</div></td></tr><tr><td style="font-weight:bold;vertical-align:top;">description</td><td style="vertical-align:top;">:</td><td><div></div></td></tr><tr><td style="font-weight:bold;vertical-align:top;">keywords</td><td style="vertical-align:top;">:</td><td><div></div></td></tr></table></div></td></tr><tr><td style="font-weight:bold;vertical-align:top;">models_to_run</td><td style="vertical-align:top;">:</td><td><div><table><tr><td><div>^\\w+\\.py$</div></td></tr><tr><td><div>^default/\\w+\\.py$</div></td></tr><tr><td><div>^default/index/\\w+\\.py$</div></td></tr></table></div></td></tr><tr><td style="font-weight:bold;vertical-align:top;">postprocessing</td><td style="vertical-align:top;">:</td><td><div><table></table></div></td></tr><tr><td style="font-weight:bold;vertical-align:top;">session_client</td><td style="vertical-align:top;">:</td><td><div>127.0.0.1</div></td></tr><tr><td style="font-weight:bold;vertical-align:top;">session_cookie_compression_level</td><td style="vertical-align:top;">:</td><td><div>None</div></td></tr><tr><td style="font-weight:bold;vertical-align:top;">session_cookie_expires</td><td style="vertical-align:top;">:</td><td><div>None</div></td></tr><tr><td style="font-weight:bold;vertical-align:top;">session_data_name</td><td style="vertical-align:top;">:</td><td><div>session_data_sigulab</div></td></tr><tr><td style="font-weight:bold;vertical-align:top;">session_file</td><td style="vertical-align:top;">:</td><td><div>&lt;open file &#x27;/home/adolfo/Desktop/PROYECTO ULAB/applications/SIGULAB/sessions/010/119/127.0.0.1-90705daf-d3c4-4545-a78e-311961a8c9dd&#x27;, mode &#x27;rb+&#x27; at 0x7ff6f2c32f60&gt;</div></td></tr><tr><td style="font-weight:bold;vertical-align:top;">session_filename</td><td style="vertical-align:top;">:</td><td><div>/home/adolfo/Desktop/PROYECTO ULAB/applications/SIGULAB/sessions/127.0.0.1-90705daf-d3c4-4545-a78e-311961a8c9dd</div></td></tr><tr><td style="font-weight:bold;vertical-align:top;">session_hash</td><td style="vertical-align:top;">:</td><td><div>8b364421513e9f83d282700f0c89a503</div></td></tr><tr><td style="font-weight:bold;vertical-align:top;">session_id</td><td style="vertical-align:top;">:</td><td><div>127.0.0.1-90705daf-d3c4-4545-a78e-311961a8c9dd</div></td></tr><tr><td style="font-weight:bold;vertical-align:top;">session_id_name</td><td style="vertical-align:top;">:</td><td><div>session_id_sigulab</div></td></tr><tr><td style="font-weight:bold;vertical-align:top;">session_locked</td><td style="vertical-align:top;">:</td><td><div>True</div></td></tr><tr><td style="font-weight:bold;vertical-align:top;">session_masterapp</td><td style="vertical-align:top;">:</td><td><div>SIGULAB</div></td></tr><tr><td style="font-weight:bold;vertical-align:top;">session_new</td><td style="vertical-align:top;">:</td><td><div>False</div></td></tr><tr><td style="font-weight:bold;vertical-align:top;">session_storage_type</td><td style="vertical-align:top;">:</td><td><div>file</div></td></tr><tr><td style="font-weight:bold;vertical-align:top;">status</td><td style="vertical-align:top;">:</td><td><div>200</div></td></tr><tr><td style="font-weight:bold;vertical-align:top;">subtitle</td><td style="vertical-align:top;">:</td><td><div>Equipo</div></td></tr><tr><td style="font-weight:bold;vertical-align:top;">title</td><td style="vertical-align:top;">:</td><td><div>Sistema De Gesti\xc3\xb3n ULAB - USB</div></td></tr><tr><td style="font-weight:bold;vertical-align:top;">view</td><td style="vertical-align:top;">:</td><td><div>default/index.html</div></td></tr></table></div>'
tRp133
sS'locals'
p134
(dp135
g4
S"'/home/adolfo/Desktop/PROYECTO ULAB/applications/SIGULAB/models/populate.py'"
p136
sg6
S'"def populate_db:\\n    db.t_sustancias.insert(f_no...tado=\'1\', f_control=\'4\', f_peligrosidad=\'Nocivo\')"'
p137
sssS'traceback'
p138
S'Traceback (most recent call last):\n  File "/home/adolfo/Desktop/PROYECTO ULAB/gluon/restricted.py", line 226, in restricted\n    ccode = compile2(code, layer)\n  File "/home/adolfo/Desktop/PROYECTO ULAB/gluon/restricted.py", line 209, in compile2\n    return compile(code.rstrip().replace(\'\\r\\n\', \'\\n\') + \'\\n\', layer, \'exec\')\n  File "/home/adolfo/Desktop/PROYECTO ULAB/applications/SIGULAB/models/populate.py", line 1\n    def populate_db:\n                   ^\nSyntaxError: invalid syntax\n'
p139
s.